
Lab6.elf:     file format elf32-avr

Sections:
Idx Name          Size      VMA       LMA       File off  Algn
  0 .data         0000006a  00800100  00004de6  00004e7a  2**0
                  CONTENTS, ALLOC, LOAD, DATA
  1 .text         00004de6  00000000  00000000  00000094  2**1
                  CONTENTS, ALLOC, LOAD, READONLY, CODE
  2 .bss          00000128  0080016a  0080016a  00004ee4  2**0
                  ALLOC
  3 .comment      0000005c  00000000  00000000  00004ee4  2**0
                  CONTENTS, READONLY
  4 .note.gnu.avr.deviceinfo 00000040  00000000  00000000  00004f40  2**2
                  CONTENTS, READONLY
  5 .debug_info   000006cc  00000000  00000000  00004f80  2**0
                  CONTENTS, READONLY, DEBUGGING
  6 .debug_abbrev 0000066e  00000000  00000000  0000564c  2**0
                  CONTENTS, READONLY, DEBUGGING
  7 .debug_line   00000151  00000000  00000000  00005cba  2**0
                  CONTENTS, READONLY, DEBUGGING
  8 .debug_str    00000255  00000000  00000000  00005e0b  2**0
                  CONTENTS, READONLY, DEBUGGING

Disassembly of section .text:

00000000 <__vectors>:
       0:	0c 94 0b 03 	jmp	0x616	; 0x616 <__ctors_end>
       4:	0c 94 28 03 	jmp	0x650	; 0x650 <__bad_interrupt>
       8:	0c 94 28 03 	jmp	0x650	; 0x650 <__bad_interrupt>
       c:	0c 94 28 03 	jmp	0x650	; 0x650 <__bad_interrupt>
      10:	0c 94 55 0e 	jmp	0x1caa	; 0x1caa <__vector_4>
      14:	0c 94 7e 0e 	jmp	0x1cfc	; 0x1cfc <__vector_5>
      18:	0c 94 a7 0e 	jmp	0x1d4e	; 0x1d4e <__vector_6>
      1c:	0c 94 d0 0e 	jmp	0x1da0	; 0x1da0 <__vector_7>
      20:	0c 94 28 03 	jmp	0x650	; 0x650 <__bad_interrupt>
      24:	0c 94 36 0d 	jmp	0x1a6c	; 0x1a6c <__vector_9>
      28:	0c 94 5f 0d 	jmp	0x1abe	; 0x1abe <__vector_10>
      2c:	0c 94 88 0d 	jmp	0x1b10	; 0x1b10 <__vector_11>
      30:	0c 94 03 0e 	jmp	0x1c06	; 0x1c06 <__vector_12>
      34:	0c 94 b1 0d 	jmp	0x1b62	; 0x1b62 <__vector_13>
      38:	0c 94 da 0d 	jmp	0x1bb4	; 0x1bb4 <__vector_14>
      3c:	0c 94 2c 0e 	jmp	0x1c58	; 0x1c58 <__vector_15>
      40:	0c 94 bb 0c 	jmp	0x1976	; 0x1976 <__vector_16>
      44:	0c 94 e4 0c 	jmp	0x19c8	; 0x19c8 <__vector_17>
      48:	0c 94 0d 0d 	jmp	0x1a1a	; 0x1a1a <__vector_18>
      4c:	0c 94 28 03 	jmp	0x650	; 0x650 <__bad_interrupt>
      50:	0c 94 28 03 	jmp	0x650	; 0x650 <__bad_interrupt>
      54:	0c 94 28 03 	jmp	0x650	; 0x650 <__bad_interrupt>
      58:	0c 94 28 03 	jmp	0x650	; 0x650 <__bad_interrupt>
      5c:	0c 94 28 03 	jmp	0x650	; 0x650 <__bad_interrupt>
      60:	0c 94 28 03 	jmp	0x650	; 0x650 <__bad_interrupt>
      64:	0c 94 28 03 	jmp	0x650	; 0x650 <__bad_interrupt>
      68:	0c 94 28 03 	jmp	0x650	; 0x650 <__bad_interrupt>
      6c:	0c 94 28 03 	jmp	0x650	; 0x650 <__bad_interrupt>
      70:	0c 94 28 03 	jmp	0x650	; 0x650 <__bad_interrupt>
      74:	0c 94 28 03 	jmp	0x650	; 0x650 <__bad_interrupt>
      78:	0c 94 28 03 	jmp	0x650	; 0x650 <__bad_interrupt>
      7c:	07 63       	ori	r16, 0x37	; 55
      7e:	42 36       	cpi	r20, 0x62	; 98
      80:	b7 9b       	sbis	0x16, 7	; 22
      82:	d8 a7       	std	Y+40, r29	; 0x28
      84:	1a 39       	cpi	r17, 0x9A	; 154
      86:	68 56       	subi	r22, 0x68	; 104
      88:	18 ae       	std	Y+56, r1	; 0x38
      8a:	ba ab       	std	Y+50, r27	; 0x32
      8c:	55 8c       	ldd	r5, Z+29	; 0x1d
      8e:	1d 3c       	cpi	r17, 0xCD	; 205
      90:	b7 cc       	rjmp	.-1682   	; 0xfffffa00 <__eeprom_end+0xff7efa00>
      92:	57 63       	ori	r21, 0x37	; 55
      94:	bd 6d       	ori	r27, 0xDD	; 221
      96:	ed fd       	.word	0xfded	; ????
      98:	75 3e       	cpi	r23, 0xE5	; 229
      9a:	f6 17       	cp	r31, r22
      9c:	72 31       	cpi	r23, 0x12	; 18
      9e:	bf 00       	.word	0x00bf	; ????
      a0:	00 00       	nop
      a2:	80 3f       	cpi	r24, 0xF0	; 240
      a4:	08 00       	.word	0x0008	; ????
      a6:	00 00       	nop
      a8:	be 92       	st	-X, r11
      aa:	24 49       	sbci	r18, 0x94	; 148
      ac:	12 3e       	cpi	r17, 0xE2	; 226
      ae:	ab aa       	std	Y+51, r10	; 0x33
      b0:	aa 2a       	or	r10, r26
      b2:	be cd       	rjmp	.-1156   	; 0xfffffc30 <__eeprom_end+0xff7efc30>
      b4:	cc cc       	rjmp	.-1640   	; 0xfffffa4e <__eeprom_end+0xff7efa4e>
      b6:	4c 3e       	cpi	r20, 0xEC	; 236
      b8:	00 00       	nop
      ba:	00 80       	ld	r0, Z
      bc:	be ab       	std	Y+54, r27	; 0x36
      be:	aa aa       	std	Y+50, r10	; 0x32
      c0:	aa 3e       	cpi	r26, 0xEA	; 234
      c2:	00 00       	nop
      c4:	00 00       	nop
      c6:	bf 00       	.word	0x00bf	; ????
      c8:	00 00       	nop
      ca:	80 3f       	cpi	r24, 0xF0	; 240
      cc:	00 00       	nop
      ce:	00 00       	nop
      d0:	00 08       	sbc	r0, r0
      d2:	41 78       	andi	r20, 0x81	; 129
      d4:	d3 bb       	out	0x13, r29	; 19
      d6:	43 87       	std	Z+11, r20	; 0x0b
      d8:	d1 13       	cpse	r29, r17
      da:	3d 19       	sub	r19, r13
      dc:	0e 3c       	cpi	r16, 0xCE	; 206
      de:	c3 bd       	out	0x23, r28	; 35
      e0:	42 82       	std	Z+2, r4	; 0x02
      e2:	ad 2b       	or	r26, r29
      e4:	3e 68       	ori	r19, 0x8E	; 142
      e6:	ec 82       	std	Y+4, r14	; 0x04
      e8:	76 be       	out	0x36, r7	; 54
      ea:	d9 8f       	std	Y+25, r29	; 0x19
      ec:	e1 a9       	ldd	r30, Z+49	; 0x31
      ee:	3e 4c       	sbci	r19, 0xCE	; 206
      f0:	80 ef       	ldi	r24, 0xF0	; 240
      f2:	ff be       	out	0x3f, r15	; 63
      f4:	01 c4       	rjmp	.+2050   	; 0x8f8 <LCD_set_backlight+0x14>
      f6:	ff 7f       	andi	r31, 0xFF	; 255
      f8:	3f 00       	.word	0x003f	; ????
      fa:	00 00       	nop
	...

000000fe <__trampolines_end>:
      fe:	6e 61       	ori	r22, 0x1E	; 30
     100:	6e 00       	.word	0x006e	; ????

00000102 <__c.2240>:
     102:	69 6e 66 00 00 40 7a 10 f3 5a 00 a0 72 4e 18 09     inf..@z..Z..rN..
     112:	00 10 a5 d4 e8 00 00 e8 76 48 17 00 00 e4 0b 54     ........vH.....T
     122:	02 00 00 ca 9a 3b 00 00 00 e1 f5 05 00 00 80 96     .....;..........
     132:	98 00 00 00 40 42 0f 00 00 00 a0 86 01 00 00 00     ....@B..........
     142:	10 27 00 00 00 00 e8 03 00 00 00 00 64 00 00 00     .'..........d...
     152:	00 00 0a 00 00 00 00 00 01 00 00 00 00 00 2c 76     ..............,v
     162:	d8 88 dc 67 4f 08 23 df c1 df ae 59 e1 b1 b7 96     ...gO.#....Y....
     172:	e5 e3 e4 53 c6 3a e6 51 99 76 96 e8 e6 c2 84 26     ...S.:.Q.v.....&
     182:	eb 89 8c 9b 62 ed 40 7c 6f fc ef bc 9c 9f 40 f2     ....b.@|o.....@.
     192:	ba a5 6f a5 f4 90 05 5a 2a f7 5c 93 6b 6c f9 67     ..o....Z*.\.kl.g
     1a2:	6d c1 1b fc e0 e4 0d 47 fe f5 20 e6 b5 00 d0 ed     m......G.. .....
     1b2:	90 2e 03 00 94 35 77 05 00 80 84 1e 08 00 00 20     .....5w........ 
     1c2:	4e 0a 00 00 00 c8 0c 33 33 33 33 0f 98 6e 12 83     N......3333..n..
     1d2:	11 41 ef 8d 21 14 89 3b e6 55 16 cf fe e6 db 18     .A..!..;.U......
     1e2:	d1 84 4b 38 1b f7 7c 1d 90 1d a4 bb e4 24 20 32     ..K8..|......$ 2
     1f2:	84 72 5e 22 81 00 c9 f1 24 ec a1 e5 3d 27           .r^"....$...='

00000200 <char_bitmap>:
     200:	16 05 01 00 00 00 00 00 00 00 fa 00 00 00 e0 00     ................
     210:	e0 00 28 fe 28 fe 28 24 54 fe 54 48 c4 c8 10 26     ..(.(.($T.TH...&
     220:	46 6c 92 aa 44 a0 00 a0 c0 00 00 00 38 44 82 00     Fl..D.......8D..
     230:	00 82 44 38 00 28 10 7c 10 28 10 10 7c 10 10 00     ..D8.(.|.(..|...
     240:	0a 0c 00 00 10 10 10 10 10 00 06 06 00 00 04 08     ................
     250:	10 20 40 7c 8a 92 a2 7c 00 42 fe 02 00 42 86 8a     . @|...|.B...B..
     260:	92 62 84 82 a2 d2 8c 18 28 48 fe 08 e4 a2 a2 a2     .b......(H......
     270:	9c 3c 52 92 92 0c 80 8e 90 a0 c0 6c 92 92 92 6c     .<R........l...l
     280:	60 92 92 94 78 00 6c 6c 00 00 00 6a 6c 00 00 10     `...x.ll...jl...
     290:	28 44 82 00 28 28 28 28 28 00 82 44 28 10 40 80     (D..(((((..D(.@.
     2a0:	8a 90 60 4c 92 9e 82 7c 7e 88 88 88 7e fe 92 92     ..`L...|~...~...
     2b0:	92 6c 7c 82 82 82 44 fe 82 82 44 38 fe 92 92 92     .l|...D...D8....
     2c0:	82 fe 90 90 90 80 7c 82 92 92 5e fe 10 10 10 fe     ......|...^.....
     2d0:	00 82 fe 82 00 04 02 82 fc 80 fe 10 28 44 82 fe     ............(D..
     2e0:	02 02 02 02 fe 40 30 40 fe fe 20 10 08 fe 7c 82     .....@0@.. ...|.
     2f0:	82 82 7c fe 90 90 90 60 7c 82 8a 84 7a fe 90 98     ..|....`|...z...
     300:	94 62 62 92 92 92 8c 80 80 fe 80 80 fc 02 02 02     .bb.............
     310:	fc f8 04 02 04 f8 fc 02 1c 02 fc c6 28 10 28 c6     ............(.(.
     320:	e0 10 0e 10 e0 86 8a 92 a2 c2 00 fe 82 82 00 40     ...............@
     330:	20 10 08 04 00 82 82 fe 00 20 40 80 40 20 02 02      ........ @.@ ..
     340:	02 02 02 00 80 40 20 00 04 2a 2a 2a 1e fe 12 22     .....@ ..***..."
     350:	22 1c 1c 22 22 22 04 1c 22 22 12 fe 1c 2a 2a 2a     ".."""..""...***
     360:	18 10 7e 90 80 40 30 4a 4a 4a 7c fe 10 20 20 1e     ..~..@0JJJ|..  .
     370:	00 22 be 02 00 04 02 22 bc 00 fe 08 14 22 00 00     ."....."....."..
     380:	82 fe 02 00 3e 20 18 20 1e 3e 10 20 20 1e 1c 22     ....> . .>.  .."
     390:	22 22 1c 3e 28 28 28 10 10 28 28 18 3e 3e 10 20     "".>(((..((.>>. 
     3a0:	20 10 12 2a 2a 2a 04 20 fc 22 02 04 3c 02 02 04      ..***. ."..<...
     3b0:	3e 38 04 02 04 38 3c 02 0c 02 3c 22 14 08 14 22     >8...8<...<"..."
     3c0:	30 0a 0a 0a 3c 22 26 2a 32 22 00 10 6c 82 00 00     0...<"&*2"..l...
     3d0:	00 fe 00 00 00 82 6c 10 00 08 10 10 08 10 00 00     ......l.........
     3e0:	00 00 00 7f 81 81 81 7f 7f 83 83 83 7f 7f 87 87     ................
     3f0:	87 7f 7f 8f 8f 8f 7f 7f 9f 9f 9f 7f 7f bf bf bf     ................
     400:	7f 7f ff ff ff 7f 20 40 ff 40 20 62 15 17 15 65     ...... @.@ b...e
     410:	00 fb fb 00 00                                      .....

00000415 <CEENBoT_Inc_logo_bitmap>:
     415:	00 00 00 00 00 c0 ff 03 00 e0 ff 07 00 f0 ff 0f     ................
     425:	00 f8 ff 1f 00 78 00 1e 00 78 00 1e 00 78 00 1e     .....x...x...x..
     435:	00 78 00 1e 00 78 00 1e 00 78 00 1e 00 78 00 1e     .x...x...x...x..
     445:	00 78 00 1e 00 78 00 1e 00 00 00 00 00 00 00 00     .x...x..........
     455:	00 80 ff 03 00 e0 ff 07 00 f0 ff 0f 00 f8 ff 1f     ................
     465:	00 f8 3c 1f 00 78 3c 1e 00 78 3c 1e 00 78 3c 1e     ..<..x<..x<..x<.
     475:	00 78 3c 1e 00 78 3c 1e 00 78 3c 1e 00 78 3c 1e     .x<..x<..x<..x<.
     485:	00 78 3c 1e 00 78 3c 1e 00 78 3c 1e 00 00 00 00     .x<..x<..x<.....
     495:	00 00 00 00 00 e0 ff 03 00 f0 ff 07 00 f8 ff 0f     ................
     4a5:	00 f8 ff 1f 00 78 3c 1e 00 78 3c 1e 00 78 3c 1e     .....x<..x<..x<.
     4b5:	00 78 3c 1e 00 78 3c 1e 00 78 3c 1e 00 78 3c 1e     .x<..x<..x<..x<.
     4c5:	00 78 3c 1e 00 78 3c 1e 00 78 3c 1e 00 00 00 00     .x<..x<..x<.....
     4d5:	00 00 00 00 00 f8 ff 03 00 f8 ff 0f 00 f8 ff 1f     ................
     4e5:	00 f8 ff 1f 00 00 00 1e 00 00 00 1e 00 00 80 1f     ................
     4f5:	00 00 f0 1f 00 00 ff 0f 00 e0 ff 07 00 f0 ff 00     ................
     505:	00 f8 0f 00 00 f8 00 00 00 78 00 00 00 78 00 00     .........x...x..
     515:	00 f8 ff 1f 00 f8 ff 1f 00 f0 ff 1f 00 e0 ff 1f     ................
	...
     52d:	00 f8 ff 1f 00 f8 ff 1f 00 f8 ff 1f 00 f8 ff 1f     ................
     53d:	00 78 00 1e 00 78 3c 1e 00 78 3c 1e 00 78 3c 1e     .x...x<..x<..x<.
     54d:	00 78 3c 1e 00 78 3c 1e 00 78 3c 1e 00 f8 7e 1f     .x<..x<..x<...~.
     55d:	00 f8 ff 1f 00 f0 ff 0f 00 e0 e7 03 00 00 00 00     ................
     56d:	00 00 00 38 00 ee ff 6c 00 2a 80 45 00 3a 00 47     ...8...l.*.E.:.G
     57d:	fc 03 ff 6c fc 83 ff 39 00 de ff 0b 7c d0 81 0b     ...l...9....|...
     58d:	fc d0 81 0b c0 d0 81 0b fc d0 81 0b 7c de ff 0b     ............|...
     59d:	00 82 ff 39 70 02 ff 6c f8 3a 00 47 dc 2a 80 45     ...9p..l.:.G.*.E
     5ad:	cc ee ff 6c cc 00 00 38 00 00 00 00 0c 00 00 1e     ...l...8........
     5bd:	0c 00 00 1e 00 00 00 1e 00 00 00 1e 00 00 00 1e     ................
     5cd:	00 f8 ff 1f 00 f8 ff 1f 00 f8 ff 1f 00 f8 ff 1f     ................
     5dd:	00 00 00 1e 00 00 00 1e 00 00 00 1e 00 00 00 1e     ................
     5ed:	00 00 00 5e 00 00 00 40 00 00 00 7c 00 00 00 40     ...^...@...|...@
     5fd:	00 00 00 40 00 00 00 7c 00 00 00 30 00 00 00 10     ...@...|...0....
     60d:	00 00 00 30 00 00 00 7c 00                          ...0...|.

00000616 <__ctors_end>:
     616:	11 24       	eor	r1, r1
     618:	1f be       	out	0x3f, r1	; 63
     61a:	cf ef       	ldi	r28, 0xFF	; 255
     61c:	d8 e0       	ldi	r29, 0x08	; 8
     61e:	de bf       	out	0x3e, r29	; 62
     620:	cd bf       	out	0x3d, r28	; 61

00000622 <__do_copy_data>:
     622:	11 e0       	ldi	r17, 0x01	; 1
     624:	a0 e0       	ldi	r26, 0x00	; 0
     626:	b1 e0       	ldi	r27, 0x01	; 1
     628:	e6 ee       	ldi	r30, 0xE6	; 230
     62a:	fd e4       	ldi	r31, 0x4D	; 77
     62c:	02 c0       	rjmp	.+4      	; 0x632 <__do_copy_data+0x10>
     62e:	05 90       	lpm	r0, Z+
     630:	0d 92       	st	X+, r0
     632:	aa 36       	cpi	r26, 0x6A	; 106
     634:	b1 07       	cpc	r27, r17
     636:	d9 f7       	brne	.-10     	; 0x62e <__do_copy_data+0xc>

00000638 <__do_clear_bss>:
     638:	22 e0       	ldi	r18, 0x02	; 2
     63a:	aa e6       	ldi	r26, 0x6A	; 106
     63c:	b1 e0       	ldi	r27, 0x01	; 1
     63e:	01 c0       	rjmp	.+2      	; 0x642 <.do_clear_bss_start>

00000640 <.do_clear_bss_loop>:
     640:	1d 92       	st	X+, r1

00000642 <.do_clear_bss_start>:
     642:	a2 39       	cpi	r26, 0x92	; 146
     644:	b2 07       	cpc	r27, r18
     646:	e1 f7       	brne	.-8      	; 0x640 <.do_clear_bss_loop>
     648:	0e 94 9f 03 	call	0x73e	; 0x73e <main>
     64c:	0c 94 f1 26 	jmp	0x4de2	; 0x4de2 <_exit>

00000650 <__bad_interrupt>:
     650:	0c 94 00 00 	jmp	0	; 0x0 <__vectors>

00000654 <ADC_open>:
     654:	8f e0       	ldi	r24, 0x0F	; 15
     656:	0e 94 67 0a 	call	0x14ce	; 0x14ce <SYS_increment_refcount>
     65a:	88 23       	and	r24, r24
     65c:	11 f0       	breq	.+4      	; 0x662 <ADC_open+0xe>
     65e:	82 e0       	ldi	r24, 0x02	; 2
     660:	08 95       	ret
     662:	0e 94 94 03 	call	0x728	; 0x728 <__ADC_init>
     666:	81 e0       	ldi	r24, 0x01	; 1
     668:	08 95       	ret

0000066a <ADC_sample>:
     66a:	8f e0       	ldi	r24, 0x0F	; 15
     66c:	0e 94 74 0a 	call	0x14e8	; 0x14e8 <SYS_isOpen>
     670:	88 23       	and	r24, r24
     672:	19 f4       	brne	.+6      	; 0x67a <ADC_sample+0x10>
     674:	20 e0       	ldi	r18, 0x00	; 0
     676:	30 e0       	ldi	r19, 0x00	; 0
     678:	13 c0       	rjmp	.+38     	; 0x6a0 <ADC_sample+0x36>
     67a:	80 91 7a 00 	lds	r24, 0x007A	; 0x80007a <__TEXT_REGION_LENGTH__+0x7e007a>
     67e:	80 64       	ori	r24, 0x40	; 64
     680:	80 93 7a 00 	sts	0x007A, r24	; 0x80007a <__TEXT_REGION_LENGTH__+0x7e007a>
     684:	80 91 7a 00 	lds	r24, 0x007A	; 0x80007a <__TEXT_REGION_LENGTH__+0x7e007a>
     688:	86 fd       	sbrc	r24, 6
     68a:	fc cf       	rjmp	.-8      	; 0x684 <ADC_sample+0x1a>
     68c:	30 91 78 00 	lds	r19, 0x0078	; 0x800078 <__TEXT_REGION_LENGTH__+0x7e0078>
     690:	20 91 79 00 	lds	r18, 0x0079	; 0x800079 <__TEXT_REGION_LENGTH__+0x7e0079>
     694:	92 2f       	mov	r25, r18
     696:	80 e0       	ldi	r24, 0x00	; 0
     698:	23 2f       	mov	r18, r19
     69a:	30 e0       	ldi	r19, 0x00	; 0
     69c:	28 2b       	or	r18, r24
     69e:	39 2b       	or	r19, r25
     6a0:	c9 01       	movw	r24, r18
     6a2:	08 95       	ret

000006a4 <ADC_set_VREF>:
     6a4:	ec e7       	ldi	r30, 0x7C	; 124
     6a6:	f0 e0       	ldi	r31, 0x00	; 0
     6a8:	90 81       	ld	r25, Z
     6aa:	82 95       	swap	r24
     6ac:	88 0f       	add	r24, r24
     6ae:	88 0f       	add	r24, r24
     6b0:	80 7c       	andi	r24, 0xC0	; 192
     6b2:	9f 73       	andi	r25, 0x3F	; 63
     6b4:	98 2b       	or	r25, r24
     6b6:	90 83       	st	Z, r25
     6b8:	08 95       	ret

000006ba <ADC_set_channel>:
     6ba:	58 2f       	mov	r21, r24
     6bc:	80 91 00 01 	lds	r24, 0x0100	; 0x800100 <__data_start>
     6c0:	88 30       	cpi	r24, 0x08	; 8
     6c2:	d8 f4       	brcc	.+54     	; 0x6fa <ADC_set_channel+0x40>
     6c4:	40 91 7e 00 	lds	r20, 0x007E	; 0x80007e <__TEXT_REGION_LENGTH__+0x7e007e>
     6c8:	21 e0       	ldi	r18, 0x01	; 1
     6ca:	30 e0       	ldi	r19, 0x00	; 0
     6cc:	b9 01       	movw	r22, r18
     6ce:	02 c0       	rjmp	.+4      	; 0x6d4 <ADC_set_channel+0x1a>
     6d0:	66 0f       	add	r22, r22
     6d2:	77 1f       	adc	r23, r23
     6d4:	8a 95       	dec	r24
     6d6:	e2 f7       	brpl	.-8      	; 0x6d0 <ADC_set_channel+0x16>
     6d8:	cb 01       	movw	r24, r22
     6da:	80 95       	com	r24
     6dc:	84 23       	and	r24, r20
     6de:	80 93 7e 00 	sts	0x007E, r24	; 0x80007e <__TEXT_REGION_LENGTH__+0x7e007e>
     6e2:	80 91 7e 00 	lds	r24, 0x007E	; 0x80007e <__TEXT_REGION_LENGTH__+0x7e007e>
     6e6:	05 2e       	mov	r0, r21
     6e8:	02 c0       	rjmp	.+4      	; 0x6ee <ADC_set_channel+0x34>
     6ea:	22 0f       	add	r18, r18
     6ec:	33 1f       	adc	r19, r19
     6ee:	0a 94       	dec	r0
     6f0:	e2 f7       	brpl	.-8      	; 0x6ea <ADC_set_channel+0x30>
     6f2:	82 2b       	or	r24, r18
     6f4:	80 93 7e 00 	sts	0x007E, r24	; 0x80007e <__TEXT_REGION_LENGTH__+0x7e007e>
     6f8:	0d c0       	rjmp	.+26     	; 0x714 <ADC_set_channel+0x5a>
     6fa:	20 91 7e 00 	lds	r18, 0x007E	; 0x80007e <__TEXT_REGION_LENGTH__+0x7e007e>
     6fe:	81 e0       	ldi	r24, 0x01	; 1
     700:	90 e0       	ldi	r25, 0x00	; 0
     702:	05 2e       	mov	r0, r21
     704:	02 c0       	rjmp	.+4      	; 0x70a <ADC_set_channel+0x50>
     706:	88 0f       	add	r24, r24
     708:	99 1f       	adc	r25, r25
     70a:	0a 94       	dec	r0
     70c:	e2 f7       	brpl	.-8      	; 0x706 <ADC_set_channel+0x4c>
     70e:	28 2b       	or	r18, r24
     710:	20 93 7e 00 	sts	0x007E, r18	; 0x80007e <__TEXT_REGION_LENGTH__+0x7e007e>
     714:	50 93 00 01 	sts	0x0100, r21	; 0x800100 <__data_start>
     718:	80 91 7c 00 	lds	r24, 0x007C	; 0x80007c <__TEXT_REGION_LENGTH__+0x7e007c>
     71c:	5f 71       	andi	r21, 0x1F	; 31
     71e:	80 7e       	andi	r24, 0xE0	; 224
     720:	85 2b       	or	r24, r21
     722:	80 93 7c 00 	sts	0x007C, r24	; 0x80007c <__TEXT_REGION_LENGTH__+0x7e007c>
     726:	08 95       	ret

00000728 <__ADC_init>:
     728:	8f e1       	ldi	r24, 0x1F	; 31
     72a:	80 93 7c 00 	sts	0x007C, r24	; 0x80007c <__TEXT_REGION_LENGTH__+0x7e007c>
     72e:	ea e7       	ldi	r30, 0x7A	; 122
     730:	f0 e0       	ldi	r31, 0x00	; 0
     732:	87 e0       	ldi	r24, 0x07	; 7
     734:	80 83       	st	Z, r24
     736:	80 81       	ld	r24, Z
     738:	80 68       	ori	r24, 0x80	; 128
     73a:	80 83       	st	Z, r24
     73c:	08 95       	ret

0000073e <main>:
     73e:	0e 94 b9 0c 	call	0x1972	; 0x1972 <CBOT_ISR_init>
     742:	0e 94 ab 0c 	call	0x1956	; 0x1956 <CBOT_init>
     746:	0e 94 ab 1b 	call	0x3756	; 0x3756 <CBOT_main>
     74a:	80 e0       	ldi	r24, 0x00	; 0
     74c:	90 e0       	ldi	r25, 0x00	; 0
     74e:	08 95       	ret

00000750 <LCD_clear>:
     750:	0f 93       	push	r16
     752:	1f 93       	push	r17
     754:	85 e0       	ldi	r24, 0x05	; 5
     756:	0e 94 74 0a 	call	0x14e8	; 0x14e8 <SYS_isOpen>
     75a:	88 23       	and	r24, r24
     75c:	c1 f0       	breq	.+48     	; 0x78e <LCD_clear+0x3e>
     75e:	80 e4       	ldi	r24, 0x40	; 64
     760:	60 e0       	ldi	r22, 0x00	; 0
     762:	0e 94 a5 04 	call	0x94a	; 0x94a <LCD_write>
     766:	00 e0       	ldi	r16, 0x00	; 0
     768:	80 2f       	mov	r24, r16
     76a:	60 e0       	ldi	r22, 0x00	; 0
     76c:	0e 94 50 04 	call	0x8a0	; 0x8a0 <LCD_set_PGC_addr>
     770:	10 e0       	ldi	r17, 0x00	; 0
     772:	80 e0       	ldi	r24, 0x00	; 0
     774:	61 e0       	ldi	r22, 0x01	; 1
     776:	0e 94 a5 04 	call	0x94a	; 0x94a <LCD_write>
     77a:	1f 5f       	subi	r17, 0xFF	; 255
     77c:	10 38       	cpi	r17, 0x80	; 128
     77e:	c9 f7       	brne	.-14     	; 0x772 <LCD_clear+0x22>
     780:	0f 5f       	subi	r16, 0xFF	; 255
     782:	04 30       	cpi	r16, 0x04	; 4
     784:	89 f7       	brne	.-30     	; 0x768 <LCD_clear+0x18>
     786:	83 e0       	ldi	r24, 0x03	; 3
     788:	60 e0       	ldi	r22, 0x00	; 0
     78a:	0e 94 93 04 	call	0x926	; 0x926 <LCD_set_next_PGC>
     78e:	1f 91       	pop	r17
     790:	0f 91       	pop	r16
     792:	08 95       	ret

00000794 <LCD_open>:
     794:	0f 93       	push	r16
     796:	1f 93       	push	r17
     798:	85 e0       	ldi	r24, 0x05	; 5
     79a:	0e 94 67 0a 	call	0x14ce	; 0x14ce <SYS_increment_refcount>
     79e:	88 23       	and	r24, r24
     7a0:	11 f0       	breq	.+4      	; 0x7a6 <LCD_open+0x12>
     7a2:	82 e0       	ldi	r24, 0x02	; 2
     7a4:	7a c0       	rjmp	.+244    	; 0x89a <LCD_open+0x106>
     7a6:	0e 94 f0 04 	call	0x9e0	; 0x9e0 <SPI_open>
     7aa:	18 2f       	mov	r17, r24
     7ac:	0e 94 e6 0a 	call	0x15cc	; 0x15cc <ATTINY_open>
     7b0:	11 50       	subi	r17, 0x01	; 1
     7b2:	12 30       	cpi	r17, 0x02	; 2
     7b4:	08 f0       	brcs	.+2      	; 0x7b8 <LCD_open+0x24>
     7b6:	6d c0       	rjmp	.+218    	; 0x892 <LCD_open+0xfe>
     7b8:	81 50       	subi	r24, 0x01	; 1
     7ba:	82 30       	cpi	r24, 0x02	; 2
     7bc:	08 f0       	brcs	.+2      	; 0x7c0 <LCD_open+0x2c>
     7be:	69 c0       	rjmp	.+210    	; 0x892 <LCD_open+0xfe>
     7c0:	0e 94 c0 04 	call	0x980	; 0x980 <__LCD_init>
     7c4:	8e ea       	ldi	r24, 0xAE	; 174
     7c6:	60 e0       	ldi	r22, 0x00	; 0
     7c8:	0e 94 a5 04 	call	0x94a	; 0x94a <LCD_write>
     7cc:	82 ea       	ldi	r24, 0xA2	; 162
     7ce:	60 e0       	ldi	r22, 0x00	; 0
     7d0:	0e 94 a5 04 	call	0x94a	; 0x94a <LCD_write>
     7d4:	80 ea       	ldi	r24, 0xA0	; 160
     7d6:	60 e0       	ldi	r22, 0x00	; 0
     7d8:	0e 94 a5 04 	call	0x94a	; 0x94a <LCD_write>
     7dc:	00 e5       	ldi	r16, 0x50	; 80
     7de:	13 ec       	ldi	r17, 0xC3	; 195
     7e0:	c8 01       	movw	r24, r16
     7e2:	01 97       	sbiw	r24, 0x01	; 1
     7e4:	f1 f7       	brne	.-4      	; 0x7e2 <LCD_open+0x4e>
     7e6:	80 ec       	ldi	r24, 0xC0	; 192
     7e8:	60 e0       	ldi	r22, 0x00	; 0
     7ea:	0e 94 a5 04 	call	0x94a	; 0x94a <LCD_write>
     7ee:	8f e2       	ldi	r24, 0x2F	; 47
     7f0:	60 e0       	ldi	r22, 0x00	; 0
     7f2:	0e 94 a5 04 	call	0x94a	; 0x94a <LCD_write>
     7f6:	81 e8       	ldi	r24, 0x81	; 129
     7f8:	60 e0       	ldi	r22, 0x00	; 0
     7fa:	0e 94 a5 04 	call	0x94a	; 0x94a <LCD_write>
     7fe:	86 e1       	ldi	r24, 0x16	; 22
     800:	60 e0       	ldi	r22, 0x00	; 0
     802:	0e 94 a5 04 	call	0x94a	; 0x94a <LCD_write>
     806:	82 e2       	ldi	r24, 0x22	; 34
     808:	60 e0       	ldi	r22, 0x00	; 0
     80a:	0e 94 a5 04 	call	0x94a	; 0x94a <LCD_write>
     80e:	c8 01       	movw	r24, r16
     810:	01 97       	sbiw	r24, 0x01	; 1
     812:	f1 f7       	brne	.-4      	; 0x810 <LCD_open+0x7c>
     814:	8f ea       	ldi	r24, 0xAF	; 175
     816:	60 e0       	ldi	r22, 0x00	; 0
     818:	0e 94 a5 04 	call	0x94a	; 0x94a <LCD_write>
     81c:	86 ea       	ldi	r24, 0xA6	; 166
     81e:	60 e0       	ldi	r22, 0x00	; 0
     820:	0e 94 a5 04 	call	0x94a	; 0x94a <LCD_write>
     824:	85 ea       	ldi	r24, 0xA5	; 165
     826:	60 e0       	ldi	r22, 0x00	; 0
     828:	0e 94 a5 04 	call	0x94a	; 0x94a <LCD_write>
     82c:	80 e0       	ldi	r24, 0x00	; 0
     82e:	90 e0       	ldi	r25, 0x00	; 0
     830:	28 e8       	ldi	r18, 0x88	; 136
     832:	33 e1       	ldi	r19, 0x13	; 19
     834:	f9 01       	movw	r30, r18
     836:	31 97       	sbiw	r30, 0x01	; 1
     838:	f1 f7       	brne	.-4      	; 0x836 <LCD_open+0xa2>
     83a:	01 96       	adiw	r24, 0x01	; 1
     83c:	43 e0       	ldi	r20, 0x03	; 3
     83e:	88 3e       	cpi	r24, 0xE8	; 232
     840:	94 07       	cpc	r25, r20
     842:	c1 f7       	brne	.-16     	; 0x834 <LCD_open+0xa0>
     844:	83 eb       	ldi	r24, 0xB3	; 179
     846:	60 e0       	ldi	r22, 0x00	; 0
     848:	0e 94 a5 04 	call	0x94a	; 0x94a <LCD_write>
     84c:	80 e4       	ldi	r24, 0x40	; 64
     84e:	60 e0       	ldi	r22, 0x00	; 0
     850:	0e 94 a5 04 	call	0x94a	; 0x94a <LCD_write>
     854:	83 e0       	ldi	r24, 0x03	; 3
     856:	60 e0       	ldi	r22, 0x00	; 0
     858:	0e 94 50 04 	call	0x8a0	; 0x8a0 <LCD_set_PGC_addr>
     85c:	83 e0       	ldi	r24, 0x03	; 3
     85e:	60 e0       	ldi	r22, 0x00	; 0
     860:	0e 94 93 04 	call	0x926	; 0x926 <LCD_set_next_PGC>
     864:	10 92 28 02 	sts	0x0228, r1	; 0x800228 <LCD_params+0x2>
     868:	10 92 2a 02 	sts	0x022A, r1	; 0x80022a <LCD_params+0x4>
     86c:	10 92 29 02 	sts	0x0229, r1	; 0x800229 <LCD_params+0x3>
     870:	85 e0       	ldi	r24, 0x05	; 5
     872:	91 e0       	ldi	r25, 0x01	; 1
     874:	90 93 8f 02 	sts	0x028F, r25	; 0x80028f <__iob+0x3>
     878:	80 93 8e 02 	sts	0x028E, r24	; 0x80028e <__iob+0x2>
     87c:	88 e1       	ldi	r24, 0x18	; 24
     87e:	0e 94 72 04 	call	0x8e4	; 0x8e4 <LCD_set_backlight>
     882:	0e 94 a8 03 	call	0x750	; 0x750 <LCD_clear>
     886:	84 ea       	ldi	r24, 0xA4	; 164
     888:	60 e0       	ldi	r22, 0x00	; 0
     88a:	0e 94 a5 04 	call	0x94a	; 0x94a <LCD_write>
     88e:	81 e0       	ldi	r24, 0x01	; 1
     890:	04 c0       	rjmp	.+8      	; 0x89a <LCD_open+0x106>
     892:	85 e0       	ldi	r24, 0x05	; 5
     894:	0e 94 57 0a 	call	0x14ae	; 0x14ae <SYS_decrement_refcount>
     898:	87 e0       	ldi	r24, 0x07	; 7
     89a:	1f 91       	pop	r17
     89c:	0f 91       	pop	r16
     89e:	08 95       	ret

000008a0 <LCD_set_PGC_addr>:
     8a0:	ff 92       	push	r15
     8a2:	0f 93       	push	r16
     8a4:	1f 93       	push	r17
     8a6:	08 2f       	mov	r16, r24
     8a8:	f6 2e       	mov	r15, r22
     8aa:	85 e0       	ldi	r24, 0x05	; 5
     8ac:	0e 94 74 0a 	call	0x14e8	; 0x14e8 <SYS_isOpen>
     8b0:	88 23       	and	r24, r24
     8b2:	a1 f0       	breq	.+40     	; 0x8dc <LCD_set_PGC_addr+0x3c>
     8b4:	1f 2d       	mov	r17, r15
     8b6:	1f 77       	andi	r17, 0x7F	; 127
     8b8:	03 70       	andi	r16, 0x03	; 3
     8ba:	80 2f       	mov	r24, r16
     8bc:	80 6b       	ori	r24, 0xB0	; 176
     8be:	60 e0       	ldi	r22, 0x00	; 0
     8c0:	0e 94 a5 04 	call	0x94a	; 0x94a <LCD_write>
     8c4:	12 95       	swap	r17
     8c6:	1f 70       	andi	r17, 0x0F	; 15
     8c8:	81 2f       	mov	r24, r17
     8ca:	80 61       	ori	r24, 0x10	; 16
     8cc:	60 e0       	ldi	r22, 0x00	; 0
     8ce:	0e 94 a5 04 	call	0x94a	; 0x94a <LCD_write>
     8d2:	8f 2d       	mov	r24, r15
     8d4:	8f 70       	andi	r24, 0x0F	; 15
     8d6:	60 e0       	ldi	r22, 0x00	; 0
     8d8:	0e 94 a5 04 	call	0x94a	; 0x94a <LCD_write>
     8dc:	1f 91       	pop	r17
     8de:	0f 91       	pop	r16
     8e0:	ff 90       	pop	r15
     8e2:	08 95       	ret

000008e4 <LCD_set_backlight>:
     8e4:	1f 93       	push	r17
     8e6:	18 2f       	mov	r17, r24
     8e8:	85 e0       	ldi	r24, 0x05	; 5
     8ea:	0e 94 74 0a 	call	0x14e8	; 0x14e8 <SYS_isOpen>
     8ee:	88 23       	and	r24, r24
     8f0:	c1 f0       	breq	.+48     	; 0x922 <__stack+0x23>
     8f2:	87 e0       	ldi	r24, 0x07	; 7
     8f4:	0e 94 32 05 	call	0xa64	; 0xa64 <SPI_set_slave_addr>
     8f8:	82 e0       	ldi	r24, 0x02	; 2
     8fa:	6a e0       	ldi	r22, 0x0A	; 10
     8fc:	0e 94 83 05 	call	0xb06	; 0xb06 <SPI_transmit>
     900:	82 e0       	ldi	r24, 0x02	; 2
     902:	61 eb       	ldi	r22, 0xB1	; 177
     904:	0e 94 83 05 	call	0xb06	; 0xb06 <SPI_transmit>
     908:	61 2f       	mov	r22, r17
     90a:	11 32       	cpi	r17, 0x21	; 33
     90c:	08 f0       	brcs	.+2      	; 0x910 <__stack+0x11>
     90e:	60 e2       	ldi	r22, 0x20	; 32
     910:	82 e0       	ldi	r24, 0x02	; 2
     912:	0e 94 83 05 	call	0xb06	; 0xb06 <SPI_transmit>
     916:	89 ee       	ldi	r24, 0xE9	; 233
     918:	8a 95       	dec	r24
     91a:	f1 f7       	brne	.-4      	; 0x918 <__stack+0x19>
     91c:	87 e0       	ldi	r24, 0x07	; 7
     91e:	0e 94 32 05 	call	0xa64	; 0xa64 <SPI_set_slave_addr>
     922:	1f 91       	pop	r17
     924:	08 95       	ret

00000926 <LCD_set_next_PGC>:
     926:	0f 93       	push	r16
     928:	1f 93       	push	r17
     92a:	08 2f       	mov	r16, r24
     92c:	16 2f       	mov	r17, r22
     92e:	85 e0       	ldi	r24, 0x05	; 5
     930:	0e 94 74 0a 	call	0x14e8	; 0x14e8 <SYS_isOpen>
     934:	88 23       	and	r24, r24
     936:	31 f0       	breq	.+12     	; 0x944 <LCD_set_next_PGC+0x1e>
     938:	03 70       	andi	r16, 0x03	; 3
     93a:	1f 77       	andi	r17, 0x7F	; 127
     93c:	10 93 26 02 	sts	0x0226, r17	; 0x800226 <LCD_params>
     940:	00 93 27 02 	sts	0x0227, r16	; 0x800227 <LCD_params+0x1>
     944:	1f 91       	pop	r17
     946:	0f 91       	pop	r16
     948:	08 95       	ret

0000094a <LCD_write>:
     94a:	0f 93       	push	r16
     94c:	1f 93       	push	r17
     94e:	08 2f       	mov	r16, r24
     950:	16 2f       	mov	r17, r22
     952:	85 e0       	ldi	r24, 0x05	; 5
     954:	0e 94 74 0a 	call	0x14e8	; 0x14e8 <SYS_isOpen>
     958:	88 23       	and	r24, r24
     95a:	79 f0       	breq	.+30     	; 0x97a <LCD_write+0x30>
     95c:	11 23       	and	r17, r17
     95e:	19 f0       	breq	.+6      	; 0x966 <LCD_write+0x1c>
     960:	11 30       	cpi	r17, 0x01	; 1
     962:	21 f4       	brne	.+8      	; 0x96c <LCD_write+0x22>
     964:	02 c0       	rjmp	.+4      	; 0x96a <LCD_write+0x20>
     966:	2b 98       	cbi	0x05, 3	; 5
     968:	01 c0       	rjmp	.+2      	; 0x96c <LCD_write+0x22>
     96a:	2b 9a       	sbi	0x05, 3	; 5
     96c:	86 e0       	ldi	r24, 0x06	; 6
     96e:	8a 95       	dec	r24
     970:	f1 f7       	brne	.-4      	; 0x96e <LCD_write+0x24>
     972:	80 e0       	ldi	r24, 0x00	; 0
     974:	60 2f       	mov	r22, r16
     976:	0e 94 83 05 	call	0xb06	; 0xb06 <SPI_transmit>
     97a:	1f 91       	pop	r17
     97c:	0f 91       	pop	r16
     97e:	08 95       	ret

00000980 <__LCD_init>:
     980:	23 9a       	sbi	0x04, 3	; 4
     982:	08 95       	ret

00000984 <LED_open>:
     984:	86 e0       	ldi	r24, 0x06	; 6
     986:	0e 94 67 0a 	call	0x14ce	; 0x14ce <SYS_increment_refcount>
     98a:	88 23       	and	r24, r24
     98c:	11 f0       	breq	.+4      	; 0x992 <LED_open+0xe>
     98e:	82 e0       	ldi	r24, 0x02	; 2
     990:	08 95       	ret
     992:	0e 94 d9 04 	call	0x9b2	; 0x9b2 <__LED_init>
     996:	81 e0       	ldi	r24, 0x01	; 1
     998:	08 95       	ret

0000099a <LED_tog_pattern>:
     99a:	1f 93       	push	r17
     99c:	18 2f       	mov	r17, r24
     99e:	86 e0       	ldi	r24, 0x06	; 6
     9a0:	0e 94 74 0a 	call	0x14e8	; 0x14e8 <SYS_isOpen>
     9a4:	88 23       	and	r24, r24
     9a6:	19 f0       	breq	.+6      	; 0x9ae <LED_tog_pattern+0x14>
     9a8:	81 2f       	mov	r24, r17
     9aa:	0e 94 e2 04 	call	0x9c4	; 0x9c4 <__LED_tog_pattern>
     9ae:	1f 91       	pop	r17
     9b0:	08 95       	ret

000009b2 <__LED_init>:
     9b2:	55 9a       	sbi	0x0a, 5	; 10
     9b4:	56 9a       	sbi	0x0a, 6	; 10
     9b6:	80 e2       	ldi	r24, 0x20	; 32
     9b8:	0e 94 cb 0f 	call	0x1f96	; 0x1f96 <LED_clr_pattern>
     9bc:	80 e4       	ldi	r24, 0x40	; 64
     9be:	0e 94 cb 0f 	call	0x1f96	; 0x1f96 <LED_clr_pattern>
     9c2:	08 95       	ret

000009c4 <__LED_tog_pattern>:
     9c4:	28 2f       	mov	r18, r24
     9c6:	85 ff       	sbrs	r24, 5
     9c8:	04 c0       	rjmp	.+8      	; 0x9d2 <__LED_tog_pattern+0xe>
     9ca:	8b b1       	in	r24, 0x0b	; 11
     9cc:	90 e2       	ldi	r25, 0x20	; 32
     9ce:	89 27       	eor	r24, r25
     9d0:	8b b9       	out	0x0b, r24	; 11
     9d2:	26 ff       	sbrs	r18, 6
     9d4:	04 c0       	rjmp	.+8      	; 0x9de <__LED_tog_pattern+0x1a>
     9d6:	8b b1       	in	r24, 0x0b	; 11
     9d8:	90 e4       	ldi	r25, 0x40	; 64
     9da:	89 27       	eor	r24, r25
     9dc:	8b b9       	out	0x0b, r24	; 11
     9de:	08 95       	ret

000009e0 <SPI_open>:
     9e0:	82 e0       	ldi	r24, 0x02	; 2
     9e2:	0e 94 67 0a 	call	0x14ce	; 0x14ce <SYS_increment_refcount>
     9e6:	88 23       	and	r24, r24
     9e8:	11 f0       	breq	.+4      	; 0x9ee <SPI_open+0xe>
     9ea:	82 e0       	ldi	r24, 0x02	; 2
     9ec:	08 95       	ret
     9ee:	0e 94 92 05 	call	0xb24	; 0xb24 <__SPI_init>
     9f2:	80 e0       	ldi	r24, 0x00	; 0
     9f4:	62 e5       	ldi	r22, 0x52	; 82
     9f6:	70 e1       	ldi	r23, 0x10	; 16
     9f8:	0e 94 29 05 	call	0xa52	; 0xa52 <SPI_set_config_func>
     9fc:	81 e0       	ldi	r24, 0x01	; 1
     9fe:	6a e4       	ldi	r22, 0x4A	; 74
     a00:	70 e1       	ldi	r23, 0x10	; 16
     a02:	0e 94 29 05 	call	0xa52	; 0xa52 <SPI_set_config_func>
     a06:	82 e0       	ldi	r24, 0x02	; 2
     a08:	62 e4       	ldi	r22, 0x42	; 66
     a0a:	70 e1       	ldi	r23, 0x10	; 16
     a0c:	0e 94 29 05 	call	0xa52	; 0xa52 <SPI_set_config_func>
     a10:	86 e0       	ldi	r24, 0x06	; 6
     a12:	6a e5       	ldi	r22, 0x5A	; 90
     a14:	70 e1       	ldi	r23, 0x10	; 16
     a16:	0e 94 29 05 	call	0xa52	; 0xa52 <SPI_set_config_func>
     a1a:	83 e0       	ldi	r24, 0x03	; 3
     a1c:	6a e3       	ldi	r22, 0x3A	; 58
     a1e:	70 e1       	ldi	r23, 0x10	; 16
     a20:	0e 94 29 05 	call	0xa52	; 0xa52 <SPI_set_config_func>
     a24:	84 e0       	ldi	r24, 0x04	; 4
     a26:	6a e3       	ldi	r22, 0x3A	; 58
     a28:	70 e1       	ldi	r23, 0x10	; 16
     a2a:	0e 94 29 05 	call	0xa52	; 0xa52 <SPI_set_config_func>
     a2e:	85 e0       	ldi	r24, 0x05	; 5
     a30:	6a e3       	ldi	r22, 0x3A	; 58
     a32:	70 e1       	ldi	r23, 0x10	; 16
     a34:	0e 94 29 05 	call	0xa52	; 0xa52 <SPI_set_config_func>
     a38:	87 e0       	ldi	r24, 0x07	; 7
     a3a:	6a e3       	ldi	r22, 0x3A	; 58
     a3c:	70 e1       	ldi	r23, 0x10	; 16
     a3e:	0e 94 29 05 	call	0xa52	; 0xa52 <SPI_set_config_func>
     a42:	8f ef       	ldi	r24, 0xFF	; 255
     a44:	80 93 2b 02 	sts	0x022B, r24	; 0x80022b <curr_spi_addr>
     a48:	87 e0       	ldi	r24, 0x07	; 7
     a4a:	0e 94 32 05 	call	0xa64	; 0xa64 <SPI_set_slave_addr>
     a4e:	81 e0       	ldi	r24, 0x01	; 1
     a50:	08 95       	ret

00000a52 <SPI_set_config_func>:
     a52:	e8 2f       	mov	r30, r24
     a54:	f0 e0       	ldi	r31, 0x00	; 0
     a56:	ee 0f       	add	r30, r30
     a58:	ff 1f       	adc	r31, r31
     a5a:	e7 54       	subi	r30, 0x47	; 71
     a5c:	fe 4f       	sbci	r31, 0xFE	; 254
     a5e:	71 83       	std	Z+1, r23	; 0x01
     a60:	60 83       	st	Z, r22
     a62:	08 95       	ret

00000a64 <SPI_set_slave_addr>:
     a64:	1f 93       	push	r17
     a66:	18 2f       	mov	r17, r24
     a68:	82 e0       	ldi	r24, 0x02	; 2
     a6a:	0e 94 74 0a 	call	0x14e8	; 0x14e8 <SYS_isOpen>
     a6e:	88 23       	and	r24, r24
     a70:	09 f4       	brne	.+2      	; 0xa74 <SPI_set_slave_addr+0x10>
     a72:	47 c0       	rjmp	.+142    	; 0xb02 <SPI_set_slave_addr+0x9e>
     a74:	91 2f       	mov	r25, r17
     a76:	97 70       	andi	r25, 0x07	; 7
     a78:	80 91 2b 02 	lds	r24, 0x022B	; 0x80022b <curr_spi_addr>
     a7c:	98 17       	cp	r25, r24
     a7e:	09 f4       	brne	.+2      	; 0xa82 <SPI_set_slave_addr+0x1e>
     a80:	40 c0       	rjmp	.+128    	; 0xb02 <SPI_set_slave_addr+0x9e>
     a82:	90 93 2b 02 	sts	0x022B, r25	; 0x80022b <curr_spi_addr>
     a86:	85 b1       	in	r24, 0x05	; 5
     a88:	88 7f       	andi	r24, 0xF8	; 248
     a8a:	89 2b       	or	r24, r25
     a8c:	85 b9       	out	0x05, r24	; 5
     a8e:	93 30       	cpi	r25, 0x03	; 3
     a90:	11 f1       	breq	.+68     	; 0xad6 <SPI_set_slave_addr+0x72>
     a92:	94 30       	cpi	r25, 0x04	; 4
     a94:	28 f4       	brcc	.+10     	; 0xaa0 <SPI_set_slave_addr+0x3c>
     a96:	91 30       	cpi	r25, 0x01	; 1
     a98:	51 f0       	breq	.+20     	; 0xaae <SPI_set_slave_addr+0x4a>
     a9a:	92 30       	cpi	r25, 0x02	; 2
     a9c:	90 f4       	brcc	.+36     	; 0xac2 <SPI_set_slave_addr+0x5e>
     a9e:	0c c0       	rjmp	.+24     	; 0xab8 <SPI_set_slave_addr+0x54>
     aa0:	95 30       	cpi	r25, 0x05	; 5
     aa2:	19 f1       	breq	.+70     	; 0xaea <SPI_set_slave_addr+0x86>
     aa4:	95 30       	cpi	r25, 0x05	; 5
     aa6:	e0 f0       	brcs	.+56     	; 0xae0 <SPI_set_slave_addr+0x7c>
     aa8:	96 30       	cpi	r25, 0x06	; 6
     aaa:	21 f5       	brne	.+72     	; 0xaf4 <SPI_set_slave_addr+0x90>
     aac:	0f c0       	rjmp	.+30     	; 0xacc <SPI_set_slave_addr+0x68>
     aae:	e0 91 bb 01 	lds	r30, 0x01BB	; 0x8001bb <spi_config_func_LUT+0x2>
     ab2:	f0 91 bc 01 	lds	r31, 0x01BC	; 0x8001bc <spi_config_func_LUT+0x3>
     ab6:	22 c0       	rjmp	.+68     	; 0xafc <SPI_set_slave_addr+0x98>
     ab8:	e0 91 b9 01 	lds	r30, 0x01B9	; 0x8001b9 <spi_config_func_LUT>
     abc:	f0 91 ba 01 	lds	r31, 0x01BA	; 0x8001ba <spi_config_func_LUT+0x1>
     ac0:	1d c0       	rjmp	.+58     	; 0xafc <SPI_set_slave_addr+0x98>
     ac2:	e0 91 bd 01 	lds	r30, 0x01BD	; 0x8001bd <spi_config_func_LUT+0x4>
     ac6:	f0 91 be 01 	lds	r31, 0x01BE	; 0x8001be <spi_config_func_LUT+0x5>
     aca:	18 c0       	rjmp	.+48     	; 0xafc <SPI_set_slave_addr+0x98>
     acc:	e0 91 c5 01 	lds	r30, 0x01C5	; 0x8001c5 <spi_config_func_LUT+0xc>
     ad0:	f0 91 c6 01 	lds	r31, 0x01C6	; 0x8001c6 <spi_config_func_LUT+0xd>
     ad4:	13 c0       	rjmp	.+38     	; 0xafc <SPI_set_slave_addr+0x98>
     ad6:	e0 91 bf 01 	lds	r30, 0x01BF	; 0x8001bf <spi_config_func_LUT+0x6>
     ada:	f0 91 c0 01 	lds	r31, 0x01C0	; 0x8001c0 <spi_config_func_LUT+0x7>
     ade:	0e c0       	rjmp	.+28     	; 0xafc <SPI_set_slave_addr+0x98>
     ae0:	e0 91 c1 01 	lds	r30, 0x01C1	; 0x8001c1 <spi_config_func_LUT+0x8>
     ae4:	f0 91 c2 01 	lds	r31, 0x01C2	; 0x8001c2 <spi_config_func_LUT+0x9>
     ae8:	09 c0       	rjmp	.+18     	; 0xafc <SPI_set_slave_addr+0x98>
     aea:	e0 91 c3 01 	lds	r30, 0x01C3	; 0x8001c3 <spi_config_func_LUT+0xa>
     aee:	f0 91 c4 01 	lds	r31, 0x01C4	; 0x8001c4 <spi_config_func_LUT+0xb>
     af2:	04 c0       	rjmp	.+8      	; 0xafc <SPI_set_slave_addr+0x98>
     af4:	e0 91 c7 01 	lds	r30, 0x01C7	; 0x8001c7 <spi_config_func_LUT+0xe>
     af8:	f0 91 c8 01 	lds	r31, 0x01C8	; 0x8001c8 <spi_config_func_LUT+0xf>
     afc:	30 97       	sbiw	r30, 0x00	; 0
     afe:	09 f0       	breq	.+2      	; 0xb02 <SPI_set_slave_addr+0x9e>
     b00:	09 95       	icall
     b02:	1f 91       	pop	r17
     b04:	08 95       	ret

00000b06 <SPI_transmit>:
     b06:	1f 93       	push	r17
     b08:	16 2f       	mov	r17, r22
     b0a:	0e 94 32 05 	call	0xa64	; 0xa64 <SPI_set_slave_addr>
     b0e:	82 e0       	ldi	r24, 0x02	; 2
     b10:	0e 94 74 0a 	call	0x14e8	; 0x14e8 <SYS_isOpen>
     b14:	88 23       	and	r24, r24
     b16:	21 f0       	breq	.+8      	; 0xb20 <SPI_transmit+0x1a>
     b18:	1e bd       	out	0x2e, r17	; 46
     b1a:	0d b4       	in	r0, 0x2d	; 45
     b1c:	07 fe       	sbrs	r0, 7
     b1e:	fd cf       	rjmp	.-6      	; 0xb1a <SPI_transmit+0x14>
     b20:	1f 91       	pop	r17
     b22:	08 95       	ret

00000b24 <__SPI_init>:
     b24:	25 9a       	sbi	0x04, 5	; 4
     b26:	26 98       	cbi	0x04, 6	; 4
     b28:	27 9a       	sbi	0x04, 7	; 4
     b2a:	20 9a       	sbi	0x04, 0	; 4
     b2c:	21 9a       	sbi	0x04, 1	; 4
     b2e:	22 9a       	sbi	0x04, 2	; 4
     b30:	08 95       	ret

00000b32 <STEPPER_stepmode>:
     b32:	2f 92       	push	r2
     b34:	3f 92       	push	r3
     b36:	4f 92       	push	r4
     b38:	5f 92       	push	r5
     b3a:	6f 92       	push	r6
     b3c:	7f 92       	push	r7
     b3e:	8f 92       	push	r8
     b40:	9f 92       	push	r9
     b42:	af 92       	push	r10
     b44:	bf 92       	push	r11
     b46:	cf 92       	push	r12
     b48:	df 92       	push	r13
     b4a:	ef 92       	push	r14
     b4c:	ff 92       	push	r15
     b4e:	0f 93       	push	r16
     b50:	1f 93       	push	r17
     b52:	df 93       	push	r29
     b54:	cf 93       	push	r28
     b56:	0f 92       	push	r0
     b58:	cd b7       	in	r28, 0x3d	; 61
     b5a:	de b7       	in	r29, 0x3e	; 62
     b5c:	58 2e       	mov	r5, r24
     b5e:	96 2e       	mov	r9, r22
     b60:	44 2e       	mov	r4, r20
     b62:	39 01       	movw	r6, r18
     b64:	c9 82       	std	Y+1, r12	; 0x01
     b66:	15 01       	movw	r2, r10
     b68:	ce 88       	ldd	r12, Y+22	; 0x16
     b6a:	df 88       	ldd	r13, Y+23	; 0x17
     b6c:	a8 8c       	ldd	r10, Y+24	; 0x18
     b6e:	b9 8c       	ldd	r11, Y+25	; 0x19
     b70:	6a 8d       	ldd	r22, Y+26	; 0x1a
     b72:	7b 8d       	ldd	r23, Y+27	; 0x1b
     b74:	81 e0       	ldi	r24, 0x01	; 1
     b76:	98 16       	cp	r9, r24
     b78:	19 f1       	breq	.+70     	; 0xbc0 <STEPPER_stepmode+0x8e>
     b7a:	98 16       	cp	r9, r24
     b7c:	28 f0       	brcs	.+10     	; 0xb88 <STEPPER_stepmode+0x56>
     b7e:	92 e0       	ldi	r25, 0x02	; 2
     b80:	99 16       	cp	r9, r25
     b82:	09 f0       	breq	.+2      	; 0xb86 <STEPPER_stepmode+0x54>
     b84:	70 c0       	rjmp	.+224    	; 0xc66 <STEPPER_stepmode+0x134>
     b86:	3e c0       	rjmp	.+124    	; 0xc04 <STEPPER_stepmode+0xd2>
     b88:	80 e0       	ldi	r24, 0x00	; 0
     b8a:	b7 01       	movw	r22, r14
     b8c:	0e 94 ca 07 	call	0xf94	; 0xf94 <STEPPER_set_accel>
     b90:	80 e0       	ldi	r24, 0x00	; 0
     b92:	64 2d       	mov	r22, r4
     b94:	a3 01       	movw	r20, r6
     b96:	98 01       	movw	r18, r16
     b98:	09 81       	ldd	r16, Y+1	; 0x01
     b9a:	ee 24       	eor	r14, r14
     b9c:	e3 94       	inc	r14
     b9e:	73 e6       	ldi	r23, 0x63	; 99
     ba0:	c7 2e       	mov	r12, r23
     ba2:	72 e0       	ldi	r23, 0x02	; 2
     ba4:	d7 2e       	mov	r13, r23
     ba6:	0e 94 8a 08 	call	0x1114	; 0x1114 <STEPPER_step>
     baa:	55 20       	and	r5, r5
     bac:	09 f0       	breq	.+2      	; 0xbb0 <STEPPER_stepmode+0x7e>
     bae:	5b c0       	rjmp	.+182    	; 0xc66 <STEPPER_stepmode+0x134>
     bb0:	00 d0       	rcall	.+0      	; 0xbb2 <STEPPER_stepmode+0x80>
     bb2:	0f 92       	push	r0
     bb4:	ed b7       	in	r30, 0x3d	; 61
     bb6:	fe b7       	in	r31, 0x3e	; 62
     bb8:	11 82       	std	Z+1, r1	; 0x01
     bba:	33 82       	std	Z+3, r3	; 0x03
     bbc:	22 82       	std	Z+2, r2	; 0x02
     bbe:	1c c0       	rjmp	.+56     	; 0xbf8 <STEPPER_stepmode+0xc6>
     bc0:	81 e0       	ldi	r24, 0x01	; 1
     bc2:	0e 94 ca 07 	call	0xf94	; 0xf94 <STEPPER_set_accel>
     bc6:	81 e0       	ldi	r24, 0x01	; 1
     bc8:	68 2d       	mov	r22, r8
     bca:	a6 01       	movw	r20, r12
     bcc:	95 01       	movw	r18, r10
     bce:	0c 8d       	ldd	r16, Y+28	; 0x1c
     bd0:	ee 24       	eor	r14, r14
     bd2:	e3 94       	inc	r14
     bd4:	93 e6       	ldi	r25, 0x63	; 99
     bd6:	c9 2e       	mov	r12, r25
     bd8:	92 e0       	ldi	r25, 0x02	; 2
     bda:	d9 2e       	mov	r13, r25
     bdc:	0e 94 8a 08 	call	0x1114	; 0x1114 <STEPPER_step>
     be0:	55 20       	and	r5, r5
     be2:	09 f0       	breq	.+2      	; 0xbe6 <STEPPER_stepmode+0xb4>
     be4:	40 c0       	rjmp	.+128    	; 0xc66 <STEPPER_stepmode+0x134>
     be6:	00 d0       	rcall	.+0      	; 0xbe8 <STEPPER_stepmode+0xb6>
     be8:	0f 92       	push	r0
     bea:	ed b7       	in	r30, 0x3d	; 61
     bec:	fe b7       	in	r31, 0x3e	; 62
     bee:	91 82       	std	Z+1, r9	; 0x01
     bf0:	8d 8d       	ldd	r24, Y+29	; 0x1d
     bf2:	9e 8d       	ldd	r25, Y+30	; 0x1e
     bf4:	93 83       	std	Z+3, r25	; 0x03
     bf6:	82 83       	std	Z+2, r24	; 0x02
     bf8:	0e 94 c7 09 	call	0x138e	; 0x138e <STEPPER_wait_and_then>
     bfc:	0f 90       	pop	r0
     bfe:	0f 90       	pop	r0
     c00:	0f 90       	pop	r0
     c02:	31 c0       	rjmp	.+98     	; 0xc66 <STEPPER_stepmode+0x134>
     c04:	c7 01       	movw	r24, r14
     c06:	0e 94 ec 07 	call	0xfd8	; 0xfd8 <STEPPER_set_accel2>
     c0a:	00 d0       	rcall	.+0      	; 0xc0c <STEPPER_stepmode+0xda>
     c0c:	83 e6       	ldi	r24, 0x63	; 99
     c0e:	92 e0       	ldi	r25, 0x02	; 2
     c10:	ed b7       	in	r30, 0x3d	; 61
     c12:	fe b7       	in	r31, 0x3e	; 62
     c14:	92 83       	std	Z+2, r25	; 0x02
     c16:	81 83       	std	Z+1, r24	; 0x01
     c18:	84 2d       	mov	r24, r4
     c1a:	b3 01       	movw	r22, r6
     c1c:	a8 01       	movw	r20, r16
     c1e:	29 81       	ldd	r18, Y+1	; 0x01
     c20:	08 2d       	mov	r16, r8
     c22:	76 01       	movw	r14, r12
     c24:	65 01       	movw	r12, r10
     c26:	ac 8c       	ldd	r10, Y+28	; 0x1c
     c28:	88 24       	eor	r8, r8
     c2a:	83 94       	inc	r8
     c2c:	0e 94 1d 09 	call	0x123a	; 0x123a <STEPPER_step2>
     c30:	0f 90       	pop	r0
     c32:	0f 90       	pop	r0
     c34:	55 20       	and	r5, r5
     c36:	b9 f4       	brne	.+46     	; 0xc66 <STEPPER_stepmode+0x134>
     c38:	00 d0       	rcall	.+0      	; 0xc3a <STEPPER_stepmode+0x108>
     c3a:	00 d0       	rcall	.+0      	; 0xc3c <STEPPER_stepmode+0x10a>
     c3c:	0f 92       	push	r0
     c3e:	ad b7       	in	r26, 0x3d	; 61
     c40:	be b7       	in	r27, 0x3e	; 62
     c42:	11 96       	adiw	r26, 0x01	; 1
     c44:	ed b7       	in	r30, 0x3d	; 61
     c46:	fe b7       	in	r31, 0x3e	; 62
     c48:	91 82       	std	Z+1, r9	; 0x01
     c4a:	fd 01       	movw	r30, r26
     c4c:	32 82       	std	Z+2, r3	; 0x02
     c4e:	21 82       	std	Z+1, r2	; 0x01
     c50:	8d 8d       	ldd	r24, Y+29	; 0x1d
     c52:	9e 8d       	ldd	r25, Y+30	; 0x1e
     c54:	94 83       	std	Z+4, r25	; 0x04
     c56:	83 83       	std	Z+3, r24	; 0x03
     c58:	0e 94 c7 09 	call	0x138e	; 0x138e <STEPPER_wait_and_then>
     c5c:	0f 90       	pop	r0
     c5e:	0f 90       	pop	r0
     c60:	0f 90       	pop	r0
     c62:	0f 90       	pop	r0
     c64:	0f 90       	pop	r0
     c66:	0f 90       	pop	r0
     c68:	cf 91       	pop	r28
     c6a:	df 91       	pop	r29
     c6c:	1f 91       	pop	r17
     c6e:	0f 91       	pop	r16
     c70:	ff 90       	pop	r15
     c72:	ef 90       	pop	r14
     c74:	df 90       	pop	r13
     c76:	cf 90       	pop	r12
     c78:	bf 90       	pop	r11
     c7a:	af 90       	pop	r10
     c7c:	9f 90       	pop	r9
     c7e:	8f 90       	pop	r8
     c80:	7f 90       	pop	r7
     c82:	6f 90       	pop	r6
     c84:	5f 90       	pop	r5
     c86:	4f 90       	pop	r4
     c88:	3f 90       	pop	r3
     c8a:	2f 90       	pop	r2
     c8c:	08 95       	ret

00000c8e <STEPPER_move>:
     c8e:	4f 92       	push	r4
     c90:	5f 92       	push	r5
     c92:	7f 92       	push	r7
     c94:	8f 92       	push	r8
     c96:	9f 92       	push	r9
     c98:	af 92       	push	r10
     c9a:	bf 92       	push	r11
     c9c:	cf 92       	push	r12
     c9e:	df 92       	push	r13
     ca0:	ef 92       	push	r14
     ca2:	ff 92       	push	r15
     ca4:	0f 93       	push	r16
     ca6:	1f 93       	push	r17
     ca8:	df 93       	push	r29
     caa:	cf 93       	push	r28
     cac:	cd b7       	in	r28, 0x3d	; 61
     cae:	de b7       	in	r29, 0x3e	; 62
     cb0:	56 2f       	mov	r21, r22
     cb2:	94 2e       	mov	r9, r20
     cb4:	7c 2c       	mov	r7, r12
     cb6:	aa 89       	ldd	r26, Y+18	; 0x12
     cb8:	bb 89       	ldd	r27, Y+19	; 0x13
     cba:	cc 88       	ldd	r12, Y+20	; 0x14
     cbc:	dd 88       	ldd	r13, Y+21	; 0x15
     cbe:	6e 89       	ldd	r22, Y+22	; 0x16
     cc0:	7f 89       	ldd	r23, Y+23	; 0x17
     cc2:	98 8d       	ldd	r25, Y+24	; 0x18
     cc4:	81 30       	cpi	r24, 0x01	; 1
     cc6:	09 f4       	brne	.+2      	; 0xcca <STEPPER_move+0x3c>
     cc8:	45 c0       	rjmp	.+138    	; 0xd54 <STEPPER_move+0xc6>
     cca:	81 30       	cpi	r24, 0x01	; 1
     ccc:	30 f1       	brcs	.+76     	; 0xd1a <STEPPER_move+0x8c>
     cce:	82 30       	cpi	r24, 0x02	; 2
     cd0:	09 f0       	breq	.+2      	; 0xcd4 <STEPPER_move+0x46>
     cd2:	66 c0       	rjmp	.+204    	; 0xda0 <STEPPER_move+0x112>
     cd4:	51 30       	cpi	r21, 0x01	; 1
     cd6:	71 f0       	breq	.+28     	; 0xcf4 <STEPPER_move+0x66>
     cd8:	51 30       	cpi	r21, 0x01	; 1
     cda:	20 f0       	brcs	.+8      	; 0xce4 <STEPPER_move+0x56>
     cdc:	52 30       	cpi	r21, 0x02	; 2
     cde:	09 f0       	breq	.+2      	; 0xce2 <STEPPER_move+0x54>
     ce0:	5f c0       	rjmp	.+190    	; 0xda0 <STEPPER_move+0x112>
     ce2:	11 c0       	rjmp	.+34     	; 0xd06 <STEPPER_move+0x78>
     ce4:	80 e0       	ldi	r24, 0x00	; 0
     ce6:	b7 01       	movw	r22, r14
     ce8:	0e 94 ca 07 	call	0xf94	; 0xf94 <STEPPER_set_accel>
     cec:	80 e0       	ldi	r24, 0x00	; 0
     cee:	69 2d       	mov	r22, r9
     cf0:	a8 01       	movw	r20, r16
     cf2:	06 c0       	rjmp	.+12     	; 0xd00 <STEPPER_move+0x72>
     cf4:	81 e0       	ldi	r24, 0x01	; 1
     cf6:	0e 94 ca 07 	call	0xf94	; 0xf94 <STEPPER_set_accel>
     cfa:	81 e0       	ldi	r24, 0x01	; 1
     cfc:	68 2d       	mov	r22, r8
     cfe:	a6 01       	movw	r20, r12
     d00:	0e 94 55 07 	call	0xeaa	; 0xeaa <STEPPER_run>
     d04:	4d c0       	rjmp	.+154    	; 0xda0 <STEPPER_move+0x112>
     d06:	c7 01       	movw	r24, r14
     d08:	0e 94 ec 07 	call	0xfd8	; 0xfd8 <STEPPER_set_accel2>
     d0c:	89 2d       	mov	r24, r9
     d0e:	b8 01       	movw	r22, r16
     d10:	48 2d       	mov	r20, r8
     d12:	96 01       	movw	r18, r12
     d14:	0e 94 6c 07 	call	0xed8	; 0xed8 <STEPPER_run2>
     d18:	43 c0       	rjmp	.+134    	; 0xda0 <STEPPER_move+0x112>
     d1a:	ed b7       	in	r30, 0x3d	; 61
     d1c:	fe b7       	in	r31, 0x3e	; 62
     d1e:	39 97       	sbiw	r30, 0x09	; 9
     d20:	0f b6       	in	r0, 0x3f	; 63
     d22:	f8 94       	cli
     d24:	fe bf       	out	0x3e, r31	; 62
     d26:	0f be       	out	0x3f, r0	; 63
     d28:	ed bf       	out	0x3d, r30	; 61
     d2a:	4d b6       	in	r4, 0x3d	; 61
     d2c:	5e b6       	in	r5, 0x3e	; 62
     d2e:	08 94       	sec
     d30:	41 1c       	adc	r4, r1
     d32:	51 1c       	adc	r5, r1
     d34:	b2 83       	std	Z+2, r27	; 0x02
     d36:	a1 83       	std	Z+1, r26	; 0x01
     d38:	f2 01       	movw	r30, r4
     d3a:	d3 82       	std	Z+3, r13	; 0x03
     d3c:	c2 82       	std	Z+2, r12	; 0x02
     d3e:	75 83       	std	Z+5, r23	; 0x05
     d40:	64 83       	std	Z+4, r22	; 0x04
     d42:	96 83       	std	Z+6, r25	; 0x06
     d44:	89 8d       	ldd	r24, Y+25	; 0x19
     d46:	9a 8d       	ldd	r25, Y+26	; 0x1a
     d48:	90 87       	std	Z+8, r25	; 0x08
     d4a:	87 83       	std	Z+7, r24	; 0x07
     d4c:	80 e0       	ldi	r24, 0x00	; 0
     d4e:	65 2f       	mov	r22, r21
     d50:	c7 2c       	mov	r12, r7
     d52:	1c c0       	rjmp	.+56     	; 0xd8c <STEPPER_move+0xfe>
     d54:	ed b7       	in	r30, 0x3d	; 61
     d56:	fe b7       	in	r31, 0x3e	; 62
     d58:	39 97       	sbiw	r30, 0x09	; 9
     d5a:	0f b6       	in	r0, 0x3f	; 63
     d5c:	f8 94       	cli
     d5e:	fe bf       	out	0x3e, r31	; 62
     d60:	0f be       	out	0x3f, r0	; 63
     d62:	ed bf       	out	0x3d, r30	; 61
     d64:	ad b6       	in	r10, 0x3d	; 61
     d66:	be b6       	in	r11, 0x3e	; 62
     d68:	08 94       	sec
     d6a:	a1 1c       	adc	r10, r1
     d6c:	b1 1c       	adc	r11, r1
     d6e:	b2 83       	std	Z+2, r27	; 0x02
     d70:	a1 83       	std	Z+1, r26	; 0x01
     d72:	f5 01       	movw	r30, r10
     d74:	d3 82       	std	Z+3, r13	; 0x03
     d76:	c2 82       	std	Z+2, r12	; 0x02
     d78:	75 83       	std	Z+5, r23	; 0x05
     d7a:	64 83       	std	Z+4, r22	; 0x04
     d7c:	96 83       	std	Z+6, r25	; 0x06
     d7e:	10 86       	std	Z+8, r1	; 0x08
     d80:	17 82       	std	Z+7, r1	; 0x07
     d82:	81 e0       	ldi	r24, 0x01	; 1
     d84:	65 2f       	mov	r22, r21
     d86:	c7 2c       	mov	r12, r7
     d88:	aa 24       	eor	r10, r10
     d8a:	bb 24       	eor	r11, r11
     d8c:	0e 94 99 05 	call	0xb32	; 0xb32 <STEPPER_stepmode>
     d90:	8d b7       	in	r24, 0x3d	; 61
     d92:	9e b7       	in	r25, 0x3e	; 62
     d94:	09 96       	adiw	r24, 0x09	; 9
     d96:	0f b6       	in	r0, 0x3f	; 63
     d98:	f8 94       	cli
     d9a:	9e bf       	out	0x3e, r25	; 62
     d9c:	0f be       	out	0x3f, r0	; 63
     d9e:	8d bf       	out	0x3d, r24	; 61
     da0:	cf 91       	pop	r28
     da2:	df 91       	pop	r29
     da4:	1f 91       	pop	r17
     da6:	0f 91       	pop	r16
     da8:	ff 90       	pop	r15
     daa:	ef 90       	pop	r14
     dac:	df 90       	pop	r13
     dae:	cf 90       	pop	r12
     db0:	bf 90       	pop	r11
     db2:	af 90       	pop	r10
     db4:	9f 90       	pop	r9
     db6:	8f 90       	pop	r8
     db8:	7f 90       	pop	r7
     dba:	5f 90       	pop	r5
     dbc:	4f 90       	pop	r4
     dbe:	08 95       	ret

00000dc0 <STEPPER_open>:
     dc0:	87 e0       	ldi	r24, 0x07	; 7
     dc2:	0e 94 67 0a 	call	0x14ce	; 0x14ce <SYS_increment_refcount>
     dc6:	88 23       	and	r24, r24
     dc8:	11 f0       	breq	.+4      	; 0xdce <STEPPER_open+0xe>
     dca:	82 e0       	ldi	r24, 0x02	; 2
     dcc:	08 95       	ret
     dce:	0e 94 1a 0a 	call	0x1434	; 0x1434 <__STEPPER_init>
     dd2:	81 e0       	ldi	r24, 0x01	; 1
     dd4:	80 93 62 02 	sts	0x0262, r24	; 0x800262 <STEPPER_params+0x36>
     dd8:	10 92 2c 02 	sts	0x022C, r1	; 0x80022c <STEPPER_params>
     ddc:	10 92 2d 02 	sts	0x022D, r1	; 0x80022d <STEPPER_params+0x1>
     de0:	10 92 2f 02 	sts	0x022F, r1	; 0x80022f <STEPPER_params+0x3>
     de4:	10 92 2e 02 	sts	0x022E, r1	; 0x80022e <STEPPER_params+0x2>
     de8:	10 92 31 02 	sts	0x0231, r1	; 0x800231 <STEPPER_params+0x5>
     dec:	10 92 30 02 	sts	0x0230, r1	; 0x800230 <STEPPER_params+0x4>
     df0:	10 92 33 02 	sts	0x0233, r1	; 0x800233 <STEPPER_params+0x7>
     df4:	10 92 32 02 	sts	0x0232, r1	; 0x800232 <STEPPER_params+0x6>
     df8:	10 92 35 02 	sts	0x0235, r1	; 0x800235 <STEPPER_params+0x9>
     dfc:	10 92 34 02 	sts	0x0234, r1	; 0x800234 <STEPPER_params+0x8>
     e00:	10 92 37 02 	sts	0x0237, r1	; 0x800237 <STEPPER_params+0xb>
     e04:	10 92 36 02 	sts	0x0236, r1	; 0x800236 <STEPPER_params+0xa>
     e08:	10 92 39 02 	sts	0x0239, r1	; 0x800239 <STEPPER_params+0xd>
     e0c:	10 92 38 02 	sts	0x0238, r1	; 0x800238 <STEPPER_params+0xc>
     e10:	10 92 3b 02 	sts	0x023B, r1	; 0x80023b <STEPPER_params+0xf>
     e14:	10 92 3a 02 	sts	0x023A, r1	; 0x80023a <STEPPER_params+0xe>
     e18:	10 92 3d 02 	sts	0x023D, r1	; 0x80023d <STEPPER_params+0x11>
     e1c:	10 92 3c 02 	sts	0x023C, r1	; 0x80023c <STEPPER_params+0x10>
     e20:	10 92 3f 02 	sts	0x023F, r1	; 0x80023f <STEPPER_params+0x13>
     e24:	10 92 3e 02 	sts	0x023E, r1	; 0x80023e <STEPPER_params+0x12>
     e28:	10 92 41 02 	sts	0x0241, r1	; 0x800241 <STEPPER_params+0x15>
     e2c:	10 92 40 02 	sts	0x0240, r1	; 0x800240 <STEPPER_params+0x14>
     e30:	10 92 43 02 	sts	0x0243, r1	; 0x800243 <STEPPER_params+0x17>
     e34:	10 92 42 02 	sts	0x0242, r1	; 0x800242 <STEPPER_params+0x16>
     e38:	10 92 45 02 	sts	0x0245, r1	; 0x800245 <STEPPER_params+0x19>
     e3c:	10 92 44 02 	sts	0x0244, r1	; 0x800244 <STEPPER_params+0x18>
     e40:	10 92 4a 02 	sts	0x024A, r1	; 0x80024a <STEPPER_params+0x1e>
     e44:	10 92 4b 02 	sts	0x024B, r1	; 0x80024b <STEPPER_params+0x1f>
     e48:	10 92 4c 02 	sts	0x024C, r1	; 0x80024c <STEPPER_params+0x20>
     e4c:	10 92 4d 02 	sts	0x024D, r1	; 0x80024d <STEPPER_params+0x21>
     e50:	10 92 4f 02 	sts	0x024F, r1	; 0x80024f <STEPPER_params+0x23>
     e54:	10 92 50 02 	sts	0x0250, r1	; 0x800250 <STEPPER_params+0x24>
     e58:	10 92 51 02 	sts	0x0251, r1	; 0x800251 <STEPPER_params+0x25>
     e5c:	10 92 52 02 	sts	0x0252, r1	; 0x800252 <STEPPER_params+0x26>
     e60:	10 92 53 02 	sts	0x0253, r1	; 0x800253 <STEPPER_params+0x27>
     e64:	10 92 54 02 	sts	0x0254, r1	; 0x800254 <STEPPER_params+0x28>
     e68:	10 92 55 02 	sts	0x0255, r1	; 0x800255 <STEPPER_params+0x29>
     e6c:	10 92 57 02 	sts	0x0257, r1	; 0x800257 <STEPPER_params+0x2b>
     e70:	10 92 56 02 	sts	0x0256, r1	; 0x800256 <STEPPER_params+0x2a>
     e74:	10 92 59 02 	sts	0x0259, r1	; 0x800259 <STEPPER_params+0x2d>
     e78:	10 92 58 02 	sts	0x0258, r1	; 0x800258 <STEPPER_params+0x2c>
     e7c:	10 92 5b 02 	sts	0x025B, r1	; 0x80025b <STEPPER_params+0x2f>
     e80:	10 92 5a 02 	sts	0x025A, r1	; 0x80025a <STEPPER_params+0x2e>
     e84:	10 92 5d 02 	sts	0x025D, r1	; 0x80025d <STEPPER_params+0x31>
     e88:	10 92 5c 02 	sts	0x025C, r1	; 0x80025c <STEPPER_params+0x30>
     e8c:	10 92 47 02 	sts	0x0247, r1	; 0x800247 <STEPPER_params+0x1b>
     e90:	10 92 46 02 	sts	0x0246, r1	; 0x800246 <STEPPER_params+0x1a>
     e94:	10 92 49 02 	sts	0x0249, r1	; 0x800249 <STEPPER_params+0x1d>
     e98:	10 92 48 02 	sts	0x0248, r1	; 0x800248 <STEPPER_params+0x1c>
     e9c:	10 92 61 02 	sts	0x0261, r1	; 0x800261 <STEPPER_params+0x35>
     ea0:	10 92 60 02 	sts	0x0260, r1	; 0x800260 <STEPPER_params+0x34>
     ea4:	10 92 62 02 	sts	0x0262, r1	; 0x800262 <STEPPER_params+0x36>
     ea8:	08 95       	ret

00000eaa <STEPPER_run>:
     eaa:	ef 92       	push	r14
     eac:	ff 92       	push	r15
     eae:	0f 93       	push	r16
     eb0:	1f 93       	push	r17
     eb2:	18 2f       	mov	r17, r24
     eb4:	06 2f       	mov	r16, r22
     eb6:	7a 01       	movw	r14, r20
     eb8:	60 e0       	ldi	r22, 0x00	; 0
     eba:	0e 94 29 08 	call	0x1052	; 0x1052 <STEPPER_set_mode>
     ebe:	81 2f       	mov	r24, r17
     ec0:	60 2f       	mov	r22, r16
     ec2:	0e 94 0a 08 	call	0x1014	; 0x1014 <STEPPER_set_dir>
     ec6:	81 2f       	mov	r24, r17
     ec8:	b7 01       	movw	r22, r14
     eca:	0e 94 3e 08 	call	0x107c	; 0x107c <STEPPER_set_speed>
     ece:	1f 91       	pop	r17
     ed0:	0f 91       	pop	r16
     ed2:	ff 90       	pop	r15
     ed4:	ef 90       	pop	r14
     ed6:	08 95       	ret

00000ed8 <STEPPER_run2>:
     ed8:	cf 92       	push	r12
     eda:	df 92       	push	r13
     edc:	ef 92       	push	r14
     ede:	ff 92       	push	r15
     ee0:	0f 93       	push	r16
     ee2:	1f 93       	push	r17
     ee4:	c8 2e       	mov	r12, r24
     ee6:	7b 01       	movw	r14, r22
     ee8:	d4 2e       	mov	r13, r20
     eea:	89 01       	movw	r16, r18
     eec:	82 e0       	ldi	r24, 0x02	; 2
     eee:	60 e0       	ldi	r22, 0x00	; 0
     ef0:	0e 94 29 08 	call	0x1052	; 0x1052 <STEPPER_set_mode>
     ef4:	8c 2d       	mov	r24, r12
     ef6:	6d 2d       	mov	r22, r13
     ef8:	0e 94 1f 08 	call	0x103e	; 0x103e <STEPPER_set_dir2>
     efc:	c7 01       	movw	r24, r14
     efe:	b8 01       	movw	r22, r16
     f00:	0e 94 6b 08 	call	0x10d6	; 0x10d6 <STEPPER_set_speed2>
     f04:	1f 91       	pop	r17
     f06:	0f 91       	pop	r16
     f08:	ff 90       	pop	r15
     f0a:	ef 90       	pop	r14
     f0c:	df 90       	pop	r13
     f0e:	cf 90       	pop	r12
     f10:	08 95       	ret

00000f12 <STEPPER_runn>:
     f12:	2e ef       	ldi	r18, 0xFE	; 254
     f14:	80 37       	cpi	r24, 0x70	; 112
     f16:	92 07       	cpc	r25, r18
     f18:	14 f4       	brge	.+4      	; 0xf1e <STEPPER_runn+0xc>
     f1a:	80 e7       	ldi	r24, 0x70	; 112
     f1c:	9e ef       	ldi	r25, 0xFE	; 254
     f1e:	fc 01       	movw	r30, r24
     f20:	81 e0       	ldi	r24, 0x01	; 1
     f22:	e1 39       	cpi	r30, 0x91	; 145
     f24:	f8 07       	cpc	r31, r24
     f26:	14 f0       	brlt	.+4      	; 0xf2c <STEPPER_runn+0x1a>
     f28:	e0 e9       	ldi	r30, 0x90	; 144
     f2a:	f1 e0       	ldi	r31, 0x01	; 1
     f2c:	9b 01       	movw	r18, r22
     f2e:	8e ef       	ldi	r24, 0xFE	; 254
     f30:	60 37       	cpi	r22, 0x70	; 112
     f32:	78 07       	cpc	r23, r24
     f34:	14 f4       	brge	.+4      	; 0xf3a <STEPPER_runn+0x28>
     f36:	20 e7       	ldi	r18, 0x70	; 112
     f38:	3e ef       	ldi	r19, 0xFE	; 254
     f3a:	a9 01       	movw	r20, r18
     f3c:	21 e0       	ldi	r18, 0x01	; 1
     f3e:	41 39       	cpi	r20, 0x91	; 145
     f40:	52 07       	cpc	r21, r18
     f42:	14 f0       	brlt	.+4      	; 0xf48 <STEPPER_runn+0x36>
     f44:	40 e9       	ldi	r20, 0x90	; 144
     f46:	51 e0       	ldi	r21, 0x01	; 1
     f48:	8f 2f       	mov	r24, r31
     f4a:	88 1f       	adc	r24, r24
     f4c:	88 27       	eor	r24, r24
     f4e:	88 1f       	adc	r24, r24
     f50:	25 2f       	mov	r18, r21
     f52:	22 1f       	adc	r18, r18
     f54:	22 27       	eor	r18, r18
     f56:	22 1f       	adc	r18, r18
     f58:	91 e0       	ldi	r25, 0x01	; 1
     f5a:	90 93 62 02 	sts	0x0262, r25	; 0x800262 <STEPPER_params+0x36>
     f5e:	80 93 4f 02 	sts	0x024F, r24	; 0x80024f <STEPPER_params+0x23>
     f62:	20 93 50 02 	sts	0x0250, r18	; 0x800250 <STEPPER_params+0x24>
     f66:	cf 01       	movw	r24, r30
     f68:	f7 ff       	sbrs	r31, 7
     f6a:	03 c0       	rjmp	.+6      	; 0xf72 <STEPPER_runn+0x60>
     f6c:	90 95       	com	r25
     f6e:	81 95       	neg	r24
     f70:	9f 4f       	sbci	r25, 0xFF	; 255
     f72:	9a 01       	movw	r18, r20
     f74:	57 ff       	sbrs	r21, 7
     f76:	03 c0       	rjmp	.+6      	; 0xf7e <STEPPER_runn+0x6c>
     f78:	30 95       	com	r19
     f7a:	21 95       	neg	r18
     f7c:	3f 4f       	sbci	r19, 0xFF	; 255
     f7e:	90 93 2f 02 	sts	0x022F, r25	; 0x80022f <STEPPER_params+0x3>
     f82:	80 93 2e 02 	sts	0x022E, r24	; 0x80022e <STEPPER_params+0x2>
     f86:	30 93 31 02 	sts	0x0231, r19	; 0x800231 <STEPPER_params+0x5>
     f8a:	20 93 30 02 	sts	0x0230, r18	; 0x800230 <STEPPER_params+0x4>
     f8e:	10 92 62 02 	sts	0x0262, r1	; 0x800262 <STEPPER_params+0x36>
     f92:	08 95       	ret

00000f94 <STEPPER_set_accel>:
     f94:	48 2f       	mov	r20, r24
     f96:	81 e0       	ldi	r24, 0x01	; 1
     f98:	80 93 62 02 	sts	0x0262, r24	; 0x800262 <STEPPER_params+0x36>
     f9c:	cb 01       	movw	r24, r22
     f9e:	23 e0       	ldi	r18, 0x03	; 3
     fa0:	69 3e       	cpi	r22, 0xE9	; 233
     fa2:	72 07       	cpc	r23, r18
     fa4:	10 f0       	brcs	.+4      	; 0xfaa <STEPPER_set_accel+0x16>
     fa6:	88 ee       	ldi	r24, 0xE8	; 232
     fa8:	93 e0       	ldi	r25, 0x03	; 3
     faa:	41 30       	cpi	r20, 0x01	; 1
     fac:	71 f0       	breq	.+28     	; 0xfca <STEPPER_set_accel+0x36>
     fae:	41 30       	cpi	r20, 0x01	; 1
     fb0:	18 f0       	brcs	.+6      	; 0xfb8 <STEPPER_set_accel+0x24>
     fb2:	42 30       	cpi	r20, 0x02	; 2
     fb4:	71 f4       	brne	.+28     	; 0xfd2 <STEPPER_set_accel+0x3e>
     fb6:	05 c0       	rjmp	.+10     	; 0xfc2 <STEPPER_set_accel+0x2e>
     fb8:	90 93 37 02 	sts	0x0237, r25	; 0x800237 <STEPPER_params+0xb>
     fbc:	80 93 36 02 	sts	0x0236, r24	; 0x800236 <STEPPER_params+0xa>
     fc0:	08 c0       	rjmp	.+16     	; 0xfd2 <STEPPER_set_accel+0x3e>
     fc2:	90 93 37 02 	sts	0x0237, r25	; 0x800237 <STEPPER_params+0xb>
     fc6:	80 93 36 02 	sts	0x0236, r24	; 0x800236 <STEPPER_params+0xa>
     fca:	90 93 39 02 	sts	0x0239, r25	; 0x800239 <STEPPER_params+0xd>
     fce:	80 93 38 02 	sts	0x0238, r24	; 0x800238 <STEPPER_params+0xc>
     fd2:	10 92 62 02 	sts	0x0262, r1	; 0x800262 <STEPPER_params+0x36>
     fd6:	08 95       	ret

00000fd8 <STEPPER_set_accel2>:
     fd8:	21 e0       	ldi	r18, 0x01	; 1
     fda:	20 93 62 02 	sts	0x0262, r18	; 0x800262 <STEPPER_params+0x36>
     fde:	ac 01       	movw	r20, r24
     fe0:	83 e0       	ldi	r24, 0x03	; 3
     fe2:	49 3e       	cpi	r20, 0xE9	; 233
     fe4:	58 07       	cpc	r21, r24
     fe6:	10 f0       	brcs	.+4      	; 0xfec <STEPPER_set_accel2+0x14>
     fe8:	48 ee       	ldi	r20, 0xE8	; 232
     fea:	53 e0       	ldi	r21, 0x03	; 3
     fec:	9b 01       	movw	r18, r22
     fee:	83 e0       	ldi	r24, 0x03	; 3
     ff0:	69 3e       	cpi	r22, 0xE9	; 233
     ff2:	78 07       	cpc	r23, r24
     ff4:	10 f0       	brcs	.+4      	; 0xffa <STEPPER_set_accel2+0x22>
     ff6:	28 ee       	ldi	r18, 0xE8	; 232
     ff8:	33 e0       	ldi	r19, 0x03	; 3
     ffa:	f8 94       	cli
     ffc:	50 93 37 02 	sts	0x0237, r21	; 0x800237 <STEPPER_params+0xb>
    1000:	40 93 36 02 	sts	0x0236, r20	; 0x800236 <STEPPER_params+0xa>
    1004:	30 93 39 02 	sts	0x0239, r19	; 0x800239 <STEPPER_params+0xd>
    1008:	20 93 38 02 	sts	0x0238, r18	; 0x800238 <STEPPER_params+0xc>
    100c:	78 94       	sei
    100e:	10 92 62 02 	sts	0x0262, r1	; 0x800262 <STEPPER_params+0x36>
    1012:	08 95       	ret

00001014 <STEPPER_set_dir>:
    1014:	98 2f       	mov	r25, r24
    1016:	81 e0       	ldi	r24, 0x01	; 1
    1018:	80 93 62 02 	sts	0x0262, r24	; 0x800262 <STEPPER_params+0x36>
    101c:	91 30       	cpi	r25, 0x01	; 1
    101e:	51 f0       	breq	.+20     	; 0x1034 <STEPPER_set_dir+0x20>
    1020:	91 30       	cpi	r25, 0x01	; 1
    1022:	18 f0       	brcs	.+6      	; 0x102a <STEPPER_set_dir+0x16>
    1024:	92 30       	cpi	r25, 0x02	; 2
    1026:	41 f4       	brne	.+16     	; 0x1038 <STEPPER_set_dir+0x24>
    1028:	03 c0       	rjmp	.+6      	; 0x1030 <STEPPER_set_dir+0x1c>
    102a:	60 93 4f 02 	sts	0x024F, r22	; 0x80024f <STEPPER_params+0x23>
    102e:	04 c0       	rjmp	.+8      	; 0x1038 <STEPPER_set_dir+0x24>
    1030:	60 93 4f 02 	sts	0x024F, r22	; 0x80024f <STEPPER_params+0x23>
    1034:	60 93 50 02 	sts	0x0250, r22	; 0x800250 <STEPPER_params+0x24>
    1038:	10 92 62 02 	sts	0x0262, r1	; 0x800262 <STEPPER_params+0x36>
    103c:	08 95       	ret

0000103e <STEPPER_set_dir2>:
    103e:	91 e0       	ldi	r25, 0x01	; 1
    1040:	90 93 62 02 	sts	0x0262, r25	; 0x800262 <STEPPER_params+0x36>
    1044:	ef e4       	ldi	r30, 0x4F	; 79
    1046:	f2 e0       	ldi	r31, 0x02	; 2
    1048:	81 93       	st	Z+, r24
    104a:	60 83       	st	Z, r22
    104c:	10 92 62 02 	sts	0x0262, r1	; 0x800262 <STEPPER_params+0x36>
    1050:	08 95       	ret

00001052 <STEPPER_set_mode>:
    1052:	98 2f       	mov	r25, r24
    1054:	81 e0       	ldi	r24, 0x01	; 1
    1056:	80 93 62 02 	sts	0x0262, r24	; 0x800262 <STEPPER_params+0x36>
    105a:	91 30       	cpi	r25, 0x01	; 1
    105c:	51 f0       	breq	.+20     	; 0x1072 <STEPPER_set_mode+0x20>
    105e:	91 30       	cpi	r25, 0x01	; 1
    1060:	18 f0       	brcs	.+6      	; 0x1068 <STEPPER_set_mode+0x16>
    1062:	92 30       	cpi	r25, 0x02	; 2
    1064:	41 f4       	brne	.+16     	; 0x1076 <STEPPER_set_mode+0x24>
    1066:	03 c0       	rjmp	.+6      	; 0x106e <STEPPER_set_mode+0x1c>
    1068:	60 93 2c 02 	sts	0x022C, r22	; 0x80022c <STEPPER_params>
    106c:	04 c0       	rjmp	.+8      	; 0x1076 <STEPPER_set_mode+0x24>
    106e:	60 93 2c 02 	sts	0x022C, r22	; 0x80022c <STEPPER_params>
    1072:	60 93 2d 02 	sts	0x022D, r22	; 0x80022d <STEPPER_params+0x1>
    1076:	10 92 62 02 	sts	0x0262, r1	; 0x800262 <STEPPER_params+0x36>
    107a:	08 95       	ret

0000107c <STEPPER_set_speed>:
    107c:	48 2f       	mov	r20, r24
    107e:	81 e0       	ldi	r24, 0x01	; 1
    1080:	80 93 62 02 	sts	0x0262, r24	; 0x800262 <STEPPER_params+0x36>
    1084:	cb 01       	movw	r24, r22
    1086:	21 e0       	ldi	r18, 0x01	; 1
    1088:	61 39       	cpi	r22, 0x91	; 145
    108a:	72 07       	cpc	r23, r18
    108c:	10 f0       	brcs	.+4      	; 0x1092 <STEPPER_set_speed+0x16>
    108e:	80 e9       	ldi	r24, 0x90	; 144
    1090:	91 e0       	ldi	r25, 0x01	; 1
    1092:	41 30       	cpi	r20, 0x01	; 1
    1094:	61 f0       	breq	.+24     	; 0x10ae <STEPPER_set_speed+0x32>
    1096:	41 30       	cpi	r20, 0x01	; 1
    1098:	18 f0       	brcs	.+6      	; 0x10a0 <STEPPER_set_speed+0x24>
    109a:	42 30       	cpi	r20, 0x02	; 2
    109c:	c9 f4       	brne	.+50     	; 0x10d0 <STEPPER_set_speed+0x54>
    109e:	0e c0       	rjmp	.+28     	; 0x10bc <STEPPER_set_speed+0x40>
    10a0:	f8 94       	cli
    10a2:	90 93 2f 02 	sts	0x022F, r25	; 0x80022f <STEPPER_params+0x3>
    10a6:	80 93 2e 02 	sts	0x022E, r24	; 0x80022e <STEPPER_params+0x2>
    10aa:	78 94       	sei
    10ac:	11 c0       	rjmp	.+34     	; 0x10d0 <STEPPER_set_speed+0x54>
    10ae:	f8 94       	cli
    10b0:	90 93 31 02 	sts	0x0231, r25	; 0x800231 <STEPPER_params+0x5>
    10b4:	80 93 30 02 	sts	0x0230, r24	; 0x800230 <STEPPER_params+0x4>
    10b8:	78 94       	sei
    10ba:	0a c0       	rjmp	.+20     	; 0x10d0 <STEPPER_set_speed+0x54>
    10bc:	f8 94       	cli
    10be:	90 93 2f 02 	sts	0x022F, r25	; 0x80022f <STEPPER_params+0x3>
    10c2:	80 93 2e 02 	sts	0x022E, r24	; 0x80022e <STEPPER_params+0x2>
    10c6:	90 93 31 02 	sts	0x0231, r25	; 0x800231 <STEPPER_params+0x5>
    10ca:	80 93 30 02 	sts	0x0230, r24	; 0x800230 <STEPPER_params+0x4>
    10ce:	78 94       	sei
    10d0:	10 92 62 02 	sts	0x0262, r1	; 0x800262 <STEPPER_params+0x36>
    10d4:	08 95       	ret

000010d6 <STEPPER_set_speed2>:
    10d6:	ac 01       	movw	r20, r24
    10d8:	81 e0       	ldi	r24, 0x01	; 1
    10da:	80 93 62 02 	sts	0x0262, r24	; 0x800262 <STEPPER_params+0x36>
    10de:	f8 94       	cli
    10e0:	cb 01       	movw	r24, r22
    10e2:	21 e0       	ldi	r18, 0x01	; 1
    10e4:	61 39       	cpi	r22, 0x91	; 145
    10e6:	72 07       	cpc	r23, r18
    10e8:	10 f0       	brcs	.+4      	; 0x10ee <STEPPER_set_speed2+0x18>
    10ea:	80 e9       	ldi	r24, 0x90	; 144
    10ec:	91 e0       	ldi	r25, 0x01	; 1
    10ee:	90 93 31 02 	sts	0x0231, r25	; 0x800231 <STEPPER_params+0x5>
    10f2:	80 93 30 02 	sts	0x0230, r24	; 0x800230 <STEPPER_params+0x4>
    10f6:	9a 01       	movw	r18, r20
    10f8:	81 e0       	ldi	r24, 0x01	; 1
    10fa:	41 39       	cpi	r20, 0x91	; 145
    10fc:	58 07       	cpc	r21, r24
    10fe:	10 f0       	brcs	.+4      	; 0x1104 <STEPPER_set_speed2+0x2e>
    1100:	20 e9       	ldi	r18, 0x90	; 144
    1102:	31 e0       	ldi	r19, 0x01	; 1
    1104:	30 93 2f 02 	sts	0x022F, r19	; 0x80022f <STEPPER_params+0x3>
    1108:	20 93 2e 02 	sts	0x022E, r18	; 0x80022e <STEPPER_params+0x2>
    110c:	78 94       	sei
    110e:	10 92 62 02 	sts	0x0262, r1	; 0x800262 <STEPPER_params+0x36>
    1112:	08 95       	ret

00001114 <STEPPER_step>:
    1114:	8f 92       	push	r8
    1116:	9f 92       	push	r9
    1118:	af 92       	push	r10
    111a:	bf 92       	push	r11
    111c:	cf 92       	push	r12
    111e:	df 92       	push	r13
    1120:	ef 92       	push	r14
    1122:	ff 92       	push	r15
    1124:	0f 93       	push	r16
    1126:	1f 93       	push	r17
    1128:	cf 93       	push	r28
    112a:	df 93       	push	r29
    112c:	18 2f       	mov	r17, r24
    112e:	f6 2e       	mov	r15, r22
    1130:	4a 01       	movw	r8, r20
    1132:	59 01       	movw	r10, r18
    1134:	e6 01       	movw	r28, r12
    1136:	87 e0       	ldi	r24, 0x07	; 7
    1138:	0e 94 74 0a 	call	0x14e8	; 0x14e8 <SYS_isOpen>
    113c:	88 23       	and	r24, r24
    113e:	09 f4       	brne	.+2      	; 0x1142 <STEPPER_step+0x2e>
    1140:	6f c0       	rjmp	.+222    	; 0x1220 <STEPPER_step+0x10c>
    1142:	81 2f       	mov	r24, r17
    1144:	61 e0       	ldi	r22, 0x01	; 1
    1146:	0e 94 29 08 	call	0x1052	; 0x1052 <STEPPER_set_mode>
    114a:	81 2f       	mov	r24, r17
    114c:	b4 01       	movw	r22, r8
    114e:	a5 01       	movw	r20, r10
    1150:	0e 94 34 12 	call	0x2468	; 0x2468 <STEPPER_setup_decels>
    1154:	81 2f       	mov	r24, r17
    1156:	6f 2d       	mov	r22, r15
    1158:	0e 94 0a 08 	call	0x1014	; 0x1014 <STEPPER_set_dir>
    115c:	81 2f       	mov	r24, r17
    115e:	60 2f       	mov	r22, r16
    1160:	0e 94 1f 12 	call	0x243e	; 0x243e <STEPPER_set_stop_mode>
    1164:	81 2f       	mov	r24, r17
    1166:	b4 01       	movw	r22, r8
    1168:	0e 94 f7 11 	call	0x23ee	; 0x23ee <STEPPER_set_steps>
    116c:	c1 14       	cp	r12, r1
    116e:	d1 04       	cpc	r13, r1
    1170:	99 f0       	breq	.+38     	; 0x1198 <STEPPER_step+0x84>
    1172:	11 30       	cpi	r17, 0x01	; 1
    1174:	49 f0       	breq	.+18     	; 0x1188 <STEPPER_step+0x74>
    1176:	11 30       	cpi	r17, 0x01	; 1
    1178:	18 f0       	brcs	.+6      	; 0x1180 <STEPPER_step+0x6c>
    117a:	12 30       	cpi	r17, 0x02	; 2
    117c:	69 f4       	brne	.+26     	; 0x1198 <STEPPER_step+0x84>
    117e:	06 c0       	rjmp	.+12     	; 0x118c <STEPPER_step+0x78>
    1180:	18 82       	st	Y, r1
    1182:	10 92 5e 02 	sts	0x025E, r1	; 0x80025e <STEPPER_params+0x32>
    1186:	08 c0       	rjmp	.+16     	; 0x1198 <STEPPER_step+0x84>
    1188:	19 82       	std	Y+1, r1	; 0x01
    118a:	04 c0       	rjmp	.+8      	; 0x1194 <STEPPER_step+0x80>
    118c:	18 82       	st	Y, r1
    118e:	19 82       	std	Y+1, r1	; 0x01
    1190:	10 92 5e 02 	sts	0x025E, r1	; 0x80025e <STEPPER_params+0x32>
    1194:	10 92 5f 02 	sts	0x025F, r1	; 0x80025f <STEPPER_params+0x33>
    1198:	d0 93 61 02 	sts	0x0261, r29	; 0x800261 <STEPPER_params+0x35>
    119c:	c0 93 60 02 	sts	0x0260, r28	; 0x800260 <STEPPER_params+0x34>
    11a0:	ee 20       	and	r14, r14
    11a2:	b9 f5       	brne	.+110    	; 0x1212 <STEPPER_step+0xfe>
    11a4:	8a e6       	ldi	r24, 0x6A	; 106
    11a6:	91 e0       	ldi	r25, 0x01	; 1
    11a8:	90 93 61 02 	sts	0x0261, r25	; 0x800261 <STEPPER_params+0x35>
    11ac:	80 93 60 02 	sts	0x0260, r24	; 0x800260 <STEPPER_params+0x34>
    11b0:	81 2f       	mov	r24, r17
    11b2:	b5 01       	movw	r22, r10
    11b4:	0e 94 3e 08 	call	0x107c	; 0x107c <STEPPER_set_speed>
    11b8:	81 2f       	mov	r24, r17
    11ba:	0e 94 e2 11 	call	0x23c4	; 0x23c4 <STEPPER_go>
    11be:	11 30       	cpi	r17, 0x01	; 1
    11c0:	71 f0       	breq	.+28     	; 0x11de <STEPPER_step+0xca>
    11c2:	11 30       	cpi	r17, 0x01	; 1
    11c4:	18 f0       	brcs	.+6      	; 0x11cc <STEPPER_step+0xb8>
    11c6:	12 30       	cpi	r17, 0x02	; 2
    11c8:	59 f5       	brne	.+86     	; 0x1220 <STEPPER_step+0x10c>
    11ca:	12 c0       	rjmp	.+36     	; 0x11f0 <STEPPER_step+0xdc>
    11cc:	10 92 6a 01 	sts	0x016A, r1	; 0x80016a <__data_end>
    11d0:	10 92 5e 02 	sts	0x025E, r1	; 0x80025e <STEPPER_params+0x32>
    11d4:	80 91 6a 01 	lds	r24, 0x016A	; 0x80016a <__data_end>
    11d8:	88 23       	and	r24, r24
    11da:	e1 f3       	breq	.-8      	; 0x11d4 <STEPPER_step+0xc0>
    11dc:	21 c0       	rjmp	.+66     	; 0x1220 <STEPPER_step+0x10c>
    11de:	10 92 6b 01 	sts	0x016B, r1	; 0x80016b <__data_end+0x1>
    11e2:	10 92 5f 02 	sts	0x025F, r1	; 0x80025f <STEPPER_params+0x33>
    11e6:	80 91 6b 01 	lds	r24, 0x016B	; 0x80016b <__data_end+0x1>
    11ea:	88 23       	and	r24, r24
    11ec:	e1 f3       	breq	.-8      	; 0x11e6 <STEPPER_step+0xd2>
    11ee:	18 c0       	rjmp	.+48     	; 0x1220 <STEPPER_step+0x10c>
    11f0:	10 92 6a 01 	sts	0x016A, r1	; 0x80016a <__data_end>
    11f4:	10 92 6b 01 	sts	0x016B, r1	; 0x80016b <__data_end+0x1>
    11f8:	10 92 5e 02 	sts	0x025E, r1	; 0x80025e <STEPPER_params+0x32>
    11fc:	10 92 5f 02 	sts	0x025F, r1	; 0x80025f <STEPPER_params+0x33>
    1200:	80 91 6a 01 	lds	r24, 0x016A	; 0x80016a <__data_end>
    1204:	88 23       	and	r24, r24
    1206:	e1 f3       	breq	.-8      	; 0x1200 <STEPPER_step+0xec>
    1208:	80 91 6b 01 	lds	r24, 0x016B	; 0x80016b <__data_end+0x1>
    120c:	88 23       	and	r24, r24
    120e:	c1 f3       	breq	.-16     	; 0x1200 <STEPPER_step+0xec>
    1210:	07 c0       	rjmp	.+14     	; 0x1220 <STEPPER_step+0x10c>
    1212:	81 2f       	mov	r24, r17
    1214:	b5 01       	movw	r22, r10
    1216:	0e 94 3e 08 	call	0x107c	; 0x107c <STEPPER_set_speed>
    121a:	81 2f       	mov	r24, r17
    121c:	0e 94 e2 11 	call	0x23c4	; 0x23c4 <STEPPER_go>
    1220:	df 91       	pop	r29
    1222:	cf 91       	pop	r28
    1224:	1f 91       	pop	r17
    1226:	0f 91       	pop	r16
    1228:	ff 90       	pop	r15
    122a:	ef 90       	pop	r14
    122c:	df 90       	pop	r13
    122e:	cf 90       	pop	r12
    1230:	bf 90       	pop	r11
    1232:	af 90       	pop	r10
    1234:	9f 90       	pop	r9
    1236:	8f 90       	pop	r8
    1238:	08 95       	ret

0000123a <STEPPER_step2>:
    123a:	3f 92       	push	r3
    123c:	4f 92       	push	r4
    123e:	5f 92       	push	r5
    1240:	6f 92       	push	r6
    1242:	7f 92       	push	r7
    1244:	8f 92       	push	r8
    1246:	9f 92       	push	r9
    1248:	af 92       	push	r10
    124a:	bf 92       	push	r11
    124c:	cf 92       	push	r12
    124e:	df 92       	push	r13
    1250:	ef 92       	push	r14
    1252:	ff 92       	push	r15
    1254:	0f 93       	push	r16
    1256:	1f 93       	push	r17
    1258:	df 93       	push	r29
    125a:	cf 93       	push	r28
    125c:	cd b7       	in	r28, 0x3d	; 61
    125e:	de b7       	in	r29, 0x3e	; 62
    1260:	98 2e       	mov	r9, r24
    1262:	2b 01       	movw	r4, r22
    1264:	3a 01       	movw	r6, r20
    1266:	32 2e       	mov	r3, r18
    1268:	b0 2e       	mov	r11, r16
    126a:	0c 89       	ldd	r16, Y+20	; 0x14
    126c:	1d 89       	ldd	r17, Y+21	; 0x15
    126e:	87 e0       	ldi	r24, 0x07	; 7
    1270:	0e 94 74 0a 	call	0x14e8	; 0x14e8 <SYS_isOpen>
    1274:	88 23       	and	r24, r24
    1276:	09 f4       	brne	.+2      	; 0x127a <STEPPER_step2+0x40>
    1278:	53 c0       	rjmp	.+166    	; 0x1320 <STEPPER_step2+0xe6>
    127a:	82 e0       	ldi	r24, 0x02	; 2
    127c:	61 e0       	ldi	r22, 0x01	; 1
    127e:	0e 94 29 08 	call	0x1052	; 0x1052 <STEPPER_set_mode>
    1282:	80 e0       	ldi	r24, 0x00	; 0
    1284:	b2 01       	movw	r22, r4
    1286:	a3 01       	movw	r20, r6
    1288:	0e 94 34 12 	call	0x2468	; 0x2468 <STEPPER_setup_decels>
    128c:	81 e0       	ldi	r24, 0x01	; 1
    128e:	b7 01       	movw	r22, r14
    1290:	a6 01       	movw	r20, r12
    1292:	0e 94 34 12 	call	0x2468	; 0x2468 <STEPPER_setup_decels>
    1296:	89 2d       	mov	r24, r9
    1298:	6b 2d       	mov	r22, r11
    129a:	0e 94 1f 08 	call	0x103e	; 0x103e <STEPPER_set_dir2>
    129e:	80 e0       	ldi	r24, 0x00	; 0
    12a0:	63 2d       	mov	r22, r3
    12a2:	0e 94 1f 12 	call	0x243e	; 0x243e <STEPPER_set_stop_mode>
    12a6:	81 e0       	ldi	r24, 0x01	; 1
    12a8:	6a 2d       	mov	r22, r10
    12aa:	0e 94 1f 12 	call	0x243e	; 0x243e <STEPPER_set_stop_mode>
    12ae:	c2 01       	movw	r24, r4
    12b0:	b7 01       	movw	r22, r14
    12b2:	0e 94 12 12 	call	0x2424	; 0x2424 <STEPPER_set_steps2>
    12b6:	01 15       	cp	r16, r1
    12b8:	11 05       	cpc	r17, r1
    12ba:	39 f0       	breq	.+14     	; 0x12ca <STEPPER_step2+0x90>
    12bc:	f8 01       	movw	r30, r16
    12be:	10 82       	st	Z, r1
    12c0:	11 82       	std	Z+1, r1	; 0x01
    12c2:	10 92 5e 02 	sts	0x025E, r1	; 0x80025e <STEPPER_params+0x32>
    12c6:	10 92 5f 02 	sts	0x025F, r1	; 0x80025f <STEPPER_params+0x33>
    12ca:	10 93 61 02 	sts	0x0261, r17	; 0x800261 <STEPPER_params+0x35>
    12ce:	00 93 60 02 	sts	0x0260, r16	; 0x800260 <STEPPER_params+0x34>
    12d2:	88 20       	and	r8, r8
    12d4:	f1 f4       	brne	.+60     	; 0x1312 <STEPPER_step2+0xd8>
    12d6:	8c e6       	ldi	r24, 0x6C	; 108
    12d8:	91 e0       	ldi	r25, 0x01	; 1
    12da:	90 93 61 02 	sts	0x0261, r25	; 0x800261 <STEPPER_params+0x35>
    12de:	80 93 60 02 	sts	0x0260, r24	; 0x800260 <STEPPER_params+0x34>
    12e2:	c3 01       	movw	r24, r6
    12e4:	b6 01       	movw	r22, r12
    12e6:	0e 94 6b 08 	call	0x10d6	; 0x10d6 <STEPPER_set_speed2>
    12ea:	82 e0       	ldi	r24, 0x02	; 2
    12ec:	0e 94 e2 11 	call	0x23c4	; 0x23c4 <STEPPER_go>
    12f0:	10 92 6c 01 	sts	0x016C, r1	; 0x80016c <notify.1644>
    12f4:	10 92 6d 01 	sts	0x016D, r1	; 0x80016d <notify.1644+0x1>
    12f8:	10 92 5e 02 	sts	0x025E, r1	; 0x80025e <STEPPER_params+0x32>
    12fc:	10 92 5f 02 	sts	0x025F, r1	; 0x80025f <STEPPER_params+0x33>
    1300:	80 91 6c 01 	lds	r24, 0x016C	; 0x80016c <notify.1644>
    1304:	88 23       	and	r24, r24
    1306:	e1 f3       	breq	.-8      	; 0x1300 <STEPPER_step2+0xc6>
    1308:	80 91 6d 01 	lds	r24, 0x016D	; 0x80016d <notify.1644+0x1>
    130c:	88 23       	and	r24, r24
    130e:	c1 f3       	breq	.-16     	; 0x1300 <STEPPER_step2+0xc6>
    1310:	07 c0       	rjmp	.+14     	; 0x1320 <STEPPER_step2+0xe6>
    1312:	c3 01       	movw	r24, r6
    1314:	b6 01       	movw	r22, r12
    1316:	0e 94 6b 08 	call	0x10d6	; 0x10d6 <STEPPER_set_speed2>
    131a:	82 e0       	ldi	r24, 0x02	; 2
    131c:	0e 94 e2 11 	call	0x23c4	; 0x23c4 <STEPPER_go>
    1320:	cf 91       	pop	r28
    1322:	df 91       	pop	r29
    1324:	1f 91       	pop	r17
    1326:	0f 91       	pop	r16
    1328:	ff 90       	pop	r15
    132a:	ef 90       	pop	r14
    132c:	df 90       	pop	r13
    132e:	cf 90       	pop	r12
    1330:	bf 90       	pop	r11
    1332:	af 90       	pop	r10
    1334:	9f 90       	pop	r9
    1336:	8f 90       	pop	r8
    1338:	7f 90       	pop	r7
    133a:	6f 90       	pop	r6
    133c:	5f 90       	pop	r5
    133e:	4f 90       	pop	r4
    1340:	3f 90       	pop	r3
    1342:	08 95       	ret

00001344 <STEPPER_stop>:
    1344:	0f 93       	push	r16
    1346:	1f 93       	push	r17
    1348:	18 2f       	mov	r17, r24
    134a:	06 2f       	mov	r16, r22
    134c:	66 23       	and	r22, r22
    134e:	49 f4       	brne	.+18     	; 0x1362 <STEPPER_stop+0x1e>
    1350:	60 e0       	ldi	r22, 0x00	; 0
    1352:	70 e0       	ldi	r23, 0x00	; 0
    1354:	0e 94 3e 08 	call	0x107c	; 0x107c <STEPPER_set_speed>
    1358:	81 2f       	mov	r24, r17
    135a:	60 e0       	ldi	r22, 0x00	; 0
    135c:	70 e0       	ldi	r23, 0x00	; 0
    135e:	0e 94 f7 11 	call	0x23ee	; 0x23ee <STEPPER_set_steps>
    1362:	81 e0       	ldi	r24, 0x01	; 1
    1364:	80 93 62 02 	sts	0x0262, r24	; 0x800262 <STEPPER_params+0x36>
    1368:	11 30       	cpi	r17, 0x01	; 1
    136a:	51 f0       	breq	.+20     	; 0x1380 <STEPPER_stop+0x3c>
    136c:	11 30       	cpi	r17, 0x01	; 1
    136e:	18 f0       	brcs	.+6      	; 0x1376 <STEPPER_stop+0x32>
    1370:	12 30       	cpi	r17, 0x02	; 2
    1372:	41 f4       	brne	.+16     	; 0x1384 <STEPPER_stop+0x40>
    1374:	03 c0       	rjmp	.+6      	; 0x137c <STEPPER_stop+0x38>
    1376:	00 93 4a 02 	sts	0x024A, r16	; 0x80024a <STEPPER_params+0x1e>
    137a:	04 c0       	rjmp	.+8      	; 0x1384 <STEPPER_stop+0x40>
    137c:	00 93 4a 02 	sts	0x024A, r16	; 0x80024a <STEPPER_params+0x1e>
    1380:	00 93 4b 02 	sts	0x024B, r16	; 0x80024b <STEPPER_params+0x1f>
    1384:	10 92 62 02 	sts	0x0262, r1	; 0x800262 <STEPPER_params+0x36>
    1388:	1f 91       	pop	r17
    138a:	0f 91       	pop	r16
    138c:	08 95       	ret

0000138e <STEPPER_wait_and_then>:
    138e:	cf 92       	push	r12
    1390:	df 92       	push	r13
    1392:	ef 92       	push	r14
    1394:	ff 92       	push	r15
    1396:	0f 93       	push	r16
    1398:	1f 93       	push	r17
    139a:	df 93       	push	r29
    139c:	cf 93       	push	r28
    139e:	cd b7       	in	r28, 0x3d	; 61
    13a0:	de b7       	in	r29, 0x3e	; 62
    13a2:	1b 85       	ldd	r17, Y+11	; 0x0b
    13a4:	87 e0       	ldi	r24, 0x07	; 7
    13a6:	0e 94 74 0a 	call	0x14e8	; 0x14e8 <SYS_isOpen>
    13aa:	88 23       	and	r24, r24
    13ac:	d1 f1       	breq	.+116    	; 0x1422 <STEPPER_wait_and_then+0x94>
    13ae:	11 30       	cpi	r17, 0x01	; 1
    13b0:	61 f0       	breq	.+24     	; 0x13ca <STEPPER_wait_and_then+0x3c>
    13b2:	11 30       	cpi	r17, 0x01	; 1
    13b4:	18 f0       	brcs	.+6      	; 0x13bc <STEPPER_wait_and_then+0x2e>
    13b6:	12 30       	cpi	r17, 0x02	; 2
    13b8:	a1 f5       	brne	.+104    	; 0x1422 <STEPPER_wait_and_then+0x94>
    13ba:	11 c0       	rjmp	.+34     	; 0x13de <STEPPER_wait_and_then+0x50>
    13bc:	ec 85       	ldd	r30, Y+12	; 0x0c
    13be:	fd 85       	ldd	r31, Y+13	; 0x0d
    13c0:	80 91 63 02 	lds	r24, 0x0263	; 0x800263 <step_done>
    13c4:	88 23       	and	r24, r24
    13c6:	e1 f3       	breq	.-8      	; 0x13c0 <STEPPER_wait_and_then+0x32>
    13c8:	06 c0       	rjmp	.+12     	; 0x13d6 <STEPPER_wait_and_then+0x48>
    13ca:	ec 85       	ldd	r30, Y+12	; 0x0c
    13cc:	fd 85       	ldd	r31, Y+13	; 0x0d
    13ce:	80 91 64 02 	lds	r24, 0x0264	; 0x800264 <step_done+0x1>
    13d2:	88 23       	and	r24, r24
    13d4:	e1 f3       	breq	.-8      	; 0x13ce <STEPPER_wait_and_then+0x40>
    13d6:	30 97       	sbiw	r30, 0x00	; 0
    13d8:	21 f1       	breq	.+72     	; 0x1422 <STEPPER_wait_and_then+0x94>
    13da:	09 95       	icall
    13dc:	22 c0       	rjmp	.+68     	; 0x1422 <STEPPER_wait_and_then+0x94>
    13de:	cc 84       	ldd	r12, Y+12	; 0x0c
    13e0:	dd 84       	ldd	r13, Y+13	; 0x0d
    13e2:	ee 84       	ldd	r14, Y+14	; 0x0e
    13e4:	ff 84       	ldd	r15, Y+15	; 0x0f
    13e6:	00 e0       	ldi	r16, 0x00	; 0
    13e8:	10 e0       	ldi	r17, 0x00	; 0
    13ea:	00 23       	and	r16, r16
    13ec:	51 f4       	brne	.+20     	; 0x1402 <STEPPER_wait_and_then+0x74>
    13ee:	80 91 63 02 	lds	r24, 0x0263	; 0x800263 <step_done>
    13f2:	88 23       	and	r24, r24
    13f4:	31 f0       	breq	.+12     	; 0x1402 <STEPPER_wait_and_then+0x74>
    13f6:	c1 14       	cp	r12, r1
    13f8:	d1 04       	cpc	r13, r1
    13fa:	11 f0       	breq	.+4      	; 0x1400 <STEPPER_wait_and_then+0x72>
    13fc:	f6 01       	movw	r30, r12
    13fe:	09 95       	icall
    1400:	01 e0       	ldi	r16, 0x01	; 1
    1402:	11 23       	and	r17, r17
    1404:	51 f4       	brne	.+20     	; 0x141a <STEPPER_wait_and_then+0x8c>
    1406:	80 91 64 02 	lds	r24, 0x0264	; 0x800264 <step_done+0x1>
    140a:	88 23       	and	r24, r24
    140c:	31 f0       	breq	.+12     	; 0x141a <STEPPER_wait_and_then+0x8c>
    140e:	e1 14       	cp	r14, r1
    1410:	f1 04       	cpc	r15, r1
    1412:	11 f0       	breq	.+4      	; 0x1418 <STEPPER_wait_and_then+0x8a>
    1414:	f7 01       	movw	r30, r14
    1416:	09 95       	icall
    1418:	11 e0       	ldi	r17, 0x01	; 1
    141a:	00 23       	and	r16, r16
    141c:	31 f3       	breq	.-52     	; 0x13ea <STEPPER_wait_and_then+0x5c>
    141e:	11 23       	and	r17, r17
    1420:	21 f3       	breq	.-56     	; 0x13ea <STEPPER_wait_and_then+0x5c>
    1422:	cf 91       	pop	r28
    1424:	df 91       	pop	r29
    1426:	1f 91       	pop	r17
    1428:	0f 91       	pop	r16
    142a:	ff 90       	pop	r15
    142c:	ef 90       	pop	r14
    142e:	df 90       	pop	r13
    1430:	cf 90       	pop	r12
    1432:	08 95       	ret

00001434 <__STEPPER_init>:
    1434:	3a 9a       	sbi	0x07, 2	; 7
    1436:	3b 9a       	sbi	0x07, 3	; 7
    1438:	3c 9a       	sbi	0x07, 4	; 7
    143a:	3d 9a       	sbi	0x07, 5	; 7
    143c:	3e 9a       	sbi	0x07, 6	; 7
    143e:	3f 9a       	sbi	0x07, 7	; 7
    1440:	88 b1       	in	r24, 0x08	; 8
    1442:	83 70       	andi	r24, 0x03	; 3
    1444:	88 b9       	out	0x08, r24	; 8
    1446:	08 95       	ret

00001448 <STOPWATCH_open>:
    1448:	8b e0       	ldi	r24, 0x0B	; 11
    144a:	0e 94 67 0a 	call	0x14ce	; 0x14ce <SYS_increment_refcount>
    144e:	88 23       	and	r24, r24
    1450:	11 f0       	breq	.+4      	; 0x1456 <STOPWATCH_open+0xe>
    1452:	82 e0       	ldi	r24, 0x02	; 2
    1454:	08 95       	ret
    1456:	89 e0       	ldi	r24, 0x09	; 9
    1458:	0e 94 74 0a 	call	0x14e8	; 0x14e8 <SYS_isOpen>
    145c:	88 23       	and	r24, r24
    145e:	69 f4       	brne	.+26     	; 0x147a <STOPWATCH_open+0x32>
    1460:	10 92 66 02 	sts	0x0266, r1	; 0x800266 <STOPWATCH_params+0x1>
    1464:	10 92 65 02 	sts	0x0265, r1	; 0x800265 <STOPWATCH_params>
    1468:	8d e0       	ldi	r24, 0x0D	; 13
    146a:	61 e7       	ldi	r22, 0x71	; 113
    146c:	72 e1       	ldi	r23, 0x12	; 18
    146e:	0e 94 f9 0e 	call	0x1df2	; 0x1df2 <ISR_attach>
    1472:	0e 94 42 0a 	call	0x1484	; 0x1484 <__STOPWATCH_init>
    1476:	81 e0       	ldi	r24, 0x01	; 1
    1478:	08 95       	ret
    147a:	8b e0       	ldi	r24, 0x0B	; 11
    147c:	0e 94 57 0a 	call	0x14ae	; 0x14ae <SYS_decrement_refcount>
    1480:	82 e0       	ldi	r24, 0x02	; 2
    1482:	08 95       	ret

00001484 <__STOPWATCH_init>:
    1484:	10 92 80 00 	sts	0x0080, r1	; 0x800080 <__TEXT_REGION_LENGTH__+0x7e0080>
    1488:	e1 e8       	ldi	r30, 0x81	; 129
    148a:	f0 e0       	ldi	r31, 0x00	; 0
    148c:	10 82       	st	Z, r1
    148e:	80 81       	ld	r24, Z
    1490:	88 60       	ori	r24, 0x08	; 8
    1492:	80 83       	st	Z, r24
    1494:	80 81       	ld	r24, Z
    1496:	81 60       	ori	r24, 0x01	; 1
    1498:	80 83       	st	Z, r24
    149a:	10 92 85 00 	sts	0x0085, r1	; 0x800085 <__TEXT_REGION_LENGTH__+0x7e0085>
    149e:	10 92 84 00 	sts	0x0084, r1	; 0x800084 <__TEXT_REGION_LENGTH__+0x7e0084>
    14a2:	10 92 89 00 	sts	0x0089, r1	; 0x800089 <__TEXT_REGION_LENGTH__+0x7e0089>
    14a6:	88 ec       	ldi	r24, 0xC8	; 200
    14a8:	80 93 88 00 	sts	0x0088, r24	; 0x800088 <__TEXT_REGION_LENGTH__+0x7e0088>
    14ac:	08 95       	ret

000014ae <SYS_decrement_refcount>:
    14ae:	85 31       	cpi	r24, 0x15	; 21
    14b0:	60 f4       	brcc	.+24     	; 0x14ca <SYS_decrement_refcount+0x1c>
    14b2:	e8 2f       	mov	r30, r24
    14b4:	f0 e0       	ldi	r31, 0x00	; 0
    14b6:	ef 5e       	subi	r30, 0xEF	; 239
    14b8:	fd 4f       	sbci	r31, 0xFD	; 253
    14ba:	80 81       	ld	r24, Z
    14bc:	88 23       	and	r24, r24
    14be:	29 f0       	breq	.+10     	; 0x14ca <SYS_decrement_refcount+0x1c>
    14c0:	80 81       	ld	r24, Z
    14c2:	81 50       	subi	r24, 0x01	; 1
    14c4:	80 83       	st	Z, r24
    14c6:	80 81       	ld	r24, Z
    14c8:	08 95       	ret
    14ca:	8f ef       	ldi	r24, 0xFF	; 255
    14cc:	08 95       	ret

000014ce <SYS_increment_refcount>:
    14ce:	85 31       	cpi	r24, 0x15	; 21
    14d0:	10 f0       	brcs	.+4      	; 0x14d6 <SYS_increment_refcount+0x8>
    14d2:	80 e0       	ldi	r24, 0x00	; 0
    14d4:	08 95       	ret
    14d6:	e8 2f       	mov	r30, r24
    14d8:	f0 e0       	ldi	r31, 0x00	; 0
    14da:	ef 5e       	subi	r30, 0xEF	; 239
    14dc:	fd 4f       	sbci	r31, 0xFD	; 253
    14de:	80 81       	ld	r24, Z
    14e0:	8f 5f       	subi	r24, 0xFF	; 255
    14e2:	80 83       	st	Z, r24
    14e4:	81 50       	subi	r24, 0x01	; 1
    14e6:	08 95       	ret

000014e8 <SYS_isOpen>:
    14e8:	85 31       	cpi	r24, 0x15	; 21
    14ea:	10 f0       	brcs	.+4      	; 0x14f0 <SYS_isOpen+0x8>
    14ec:	80 e0       	ldi	r24, 0x00	; 0
    14ee:	08 95       	ret
    14f0:	e8 2f       	mov	r30, r24
    14f2:	f0 e0       	ldi	r31, 0x00	; 0
    14f4:	ef 5e       	subi	r30, 0xEF	; 239
    14f6:	fd 4f       	sbci	r31, 0xFD	; 253
    14f8:	80 81       	ld	r24, Z
    14fa:	81 11       	cpse	r24, r1
    14fc:	81 e0       	ldi	r24, 0x01	; 1
    14fe:	08 95       	ret

00001500 <ATTINY_get_IR_state>:
    1500:	1f 93       	push	r17
    1502:	18 2f       	mov	r17, r24
    1504:	80 91 6f 01 	lds	r24, 0x016F	; 0x80016f <waiting.1628>
    1508:	88 23       	and	r24, r24
    150a:	41 f0       	breq	.+16     	; 0x151c <ATTINY_get_IR_state+0x1c>
    150c:	80 91 76 01 	lds	r24, 0x0176	; 0x800176 <ir_wait_timer+0x6>
    1510:	88 23       	and	r24, r24
    1512:	99 f0       	breq	.+38     	; 0x153a <ATTINY_get_IR_state+0x3a>
    1514:	10 92 6f 01 	sts	0x016F, r1	; 0x80016f <waiting.1628>
    1518:	10 92 76 01 	sts	0x0176, r1	; 0x800176 <ir_wait_timer+0x6>
    151c:	0e 94 b5 0a 	call	0x156a	; 0x156a <ATTINY_get_sensors>
    1520:	80 93 6e 01 	sts	0x016E, r24	; 0x80016e <sensors.1629>
    1524:	80 e7       	ldi	r24, 0x70	; 112
    1526:	91 e0       	ldi	r25, 0x01	; 1
    1528:	61 e0       	ldi	r22, 0x01	; 1
    152a:	40 e0       	ldi	r20, 0x00	; 0
    152c:	28 e2       	ldi	r18, 0x28	; 40
    152e:	30 e0       	ldi	r19, 0x00	; 0
    1530:	0e 94 78 0b 	call	0x16f0	; 0x16f0 <TMRSRVC_new>
    1534:	81 e0       	ldi	r24, 0x01	; 1
    1536:	80 93 6f 01 	sts	0x016F, r24	; 0x80016f <waiting.1628>
    153a:	90 91 6e 01 	lds	r25, 0x016E	; 0x80016e <sensors.1629>
    153e:	13 30       	cpi	r17, 0x03	; 3
    1540:	18 f0       	brcs	.+6      	; 0x1548 <ATTINY_get_IR_state+0x48>
    1542:	13 30       	cpi	r17, 0x03	; 3
    1544:	79 f4       	brne	.+30     	; 0x1564 <ATTINY_get_IR_state+0x64>
    1546:	09 c0       	rjmp	.+18     	; 0x155a <ATTINY_get_IR_state+0x5a>
    1548:	e1 2f       	mov	r30, r17
    154a:	f0 e0       	ldi	r31, 0x00	; 0
    154c:	ef 5f       	subi	r30, 0xFF	; 255
    154e:	fe 4f       	sbci	r31, 0xFE	; 254
    1550:	80 81       	ld	r24, Z
    1552:	89 23       	and	r24, r25
    1554:	41 f0       	breq	.+16     	; 0x1566 <ATTINY_get_IR_state+0x66>
    1556:	81 e0       	ldi	r24, 0x01	; 1
    1558:	06 c0       	rjmp	.+12     	; 0x1566 <ATTINY_get_IR_state+0x66>
    155a:	91 ff       	sbrs	r25, 1
    155c:	03 c0       	rjmp	.+6      	; 0x1564 <ATTINY_get_IR_state+0x64>
    155e:	89 2f       	mov	r24, r25
    1560:	81 70       	andi	r24, 0x01	; 1
    1562:	01 c0       	rjmp	.+2      	; 0x1566 <ATTINY_get_IR_state+0x66>
    1564:	80 e0       	ldi	r24, 0x00	; 0
    1566:	1f 91       	pop	r17
    1568:	08 95       	ret

0000156a <ATTINY_get_sensors>:
    156a:	0f 93       	push	r16
    156c:	1f 93       	push	r17
    156e:	81 e0       	ldi	r24, 0x01	; 1
    1570:	0e 94 74 0a 	call	0x14e8	; 0x14e8 <SYS_isOpen>
    1574:	88 23       	and	r24, r24
    1576:	11 f4       	brne	.+4      	; 0x157c <ATTINY_get_sensors+0x12>
    1578:	00 e0       	ldi	r16, 0x00	; 0
    157a:	24 c0       	rjmp	.+72     	; 0x15c4 <ATTINY_get_sensors+0x5a>
    157c:	87 e0       	ldi	r24, 0x07	; 7
    157e:	0e 94 32 05 	call	0xa64	; 0xa64 <SPI_set_slave_addr>
    1582:	82 e0       	ldi	r24, 0x02	; 2
    1584:	6a e0       	ldi	r22, 0x0A	; 10
    1586:	0e 94 83 05 	call	0xb06	; 0xb06 <SPI_transmit>
    158a:	82 e0       	ldi	r24, 0x02	; 2
    158c:	62 eb       	ldi	r22, 0xB2	; 178
    158e:	0e 94 83 05 	call	0xb06	; 0xb06 <SPI_transmit>
    1592:	18 ec       	ldi	r17, 0xC8	; 200
    1594:	81 2f       	mov	r24, r17
    1596:	8a 95       	dec	r24
    1598:	f1 f7       	brne	.-4      	; 0x1596 <ATTINY_get_sensors+0x2c>
    159a:	82 e0       	ldi	r24, 0x02	; 2
    159c:	60 e0       	ldi	r22, 0x00	; 0
    159e:	0e 94 63 10 	call	0x20c6	; 0x20c6 <SPI_receive>
    15a2:	08 2f       	mov	r16, r24
    15a4:	81 2f       	mov	r24, r17
    15a6:	8a 95       	dec	r24
    15a8:	f1 f7       	brne	.-4      	; 0x15a6 <ATTINY_get_sensors+0x3c>
    15aa:	82 e0       	ldi	r24, 0x02	; 2
    15ac:	60 e0       	ldi	r22, 0x00	; 0
    15ae:	0e 94 63 10 	call	0x20c6	; 0x20c6 <SPI_receive>
    15b2:	1a 95       	dec	r17
    15b4:	f1 f7       	brne	.-4      	; 0x15b2 <ATTINY_get_sensors+0x48>
    15b6:	87 e0       	ldi	r24, 0x07	; 7
    15b8:	0e 94 32 05 	call	0xa64	; 0xa64 <SPI_set_slave_addr>
    15bc:	88 e8       	ldi	r24, 0x88	; 136
    15be:	93 e1       	ldi	r25, 0x13	; 19
    15c0:	01 97       	sbiw	r24, 0x01	; 1
    15c2:	f1 f7       	brne	.-4      	; 0x15c0 <ATTINY_get_sensors+0x56>
    15c4:	80 2f       	mov	r24, r16
    15c6:	1f 91       	pop	r17
    15c8:	0f 91       	pop	r16
    15ca:	08 95       	ret

000015cc <ATTINY_open>:
    15cc:	df 93       	push	r29
    15ce:	cf 93       	push	r28
    15d0:	00 d0       	rcall	.+0      	; 0x15d2 <ATTINY_open+0x6>
    15d2:	0f 92       	push	r0
    15d4:	cd b7       	in	r28, 0x3d	; 61
    15d6:	de b7       	in	r29, 0x3e	; 62
    15d8:	81 e0       	ldi	r24, 0x01	; 1
    15da:	0e 94 67 0a 	call	0x14ce	; 0x14ce <SYS_increment_refcount>
    15de:	88 23       	and	r24, r24
    15e0:	11 f0       	breq	.+4      	; 0x15e6 <ATTINY_open+0x1a>
    15e2:	82 e0       	ldi	r24, 0x02	; 2
    15e4:	11 c0       	rjmp	.+34     	; 0x1608 <ATTINY_open+0x3c>
    15e6:	0e 94 f0 04 	call	0x9e0	; 0x9e0 <SPI_open>
    15ea:	81 50       	subi	r24, 0x01	; 1
    15ec:	82 30       	cpi	r24, 0x02	; 2
    15ee:	40 f4       	brcc	.+16     	; 0x1600 <ATTINY_open+0x34>
    15f0:	0e 94 0a 0b 	call	0x1614	; 0x1614 <__ATTINY_initialize_params>
    15f4:	ce 01       	movw	r24, r28
    15f6:	01 96       	adiw	r24, 0x01	; 1
    15f8:	0e 94 bc 12 	call	0x2578	; 0x2578 <ATTINY_get_firm_rev>
    15fc:	81 e0       	ldi	r24, 0x01	; 1
    15fe:	04 c0       	rjmp	.+8      	; 0x1608 <ATTINY_open+0x3c>
    1600:	81 e0       	ldi	r24, 0x01	; 1
    1602:	0e 94 57 0a 	call	0x14ae	; 0x14ae <SYS_decrement_refcount>
    1606:	87 e0       	ldi	r24, 0x07	; 7
    1608:	0f 90       	pop	r0
    160a:	0f 90       	pop	r0
    160c:	0f 90       	pop	r0
    160e:	cf 91       	pop	r28
    1610:	df 91       	pop	r29
    1612:	08 95       	ret

00001614 <__ATTINY_initialize_params>:
    1614:	10 92 7c 02 	sts	0x027C, r1	; 0x80027c <ATTINY_params+0x15>
    1618:	10 92 7b 02 	sts	0x027B, r1	; 0x80027b <ATTINY_params+0x14>
    161c:	10 92 7e 02 	sts	0x027E, r1	; 0x80027e <ATTINY_params+0x17>
    1620:	10 92 7d 02 	sts	0x027D, r1	; 0x80027d <ATTINY_params+0x16>
    1624:	10 92 80 02 	sts	0x0280, r1	; 0x800280 <ATTINY_params+0x19>
    1628:	10 92 7f 02 	sts	0x027F, r1	; 0x80027f <ATTINY_params+0x18>
    162c:	10 92 82 02 	sts	0x0282, r1	; 0x800282 <ATTINY_params+0x1b>
    1630:	10 92 81 02 	sts	0x0281, r1	; 0x800281 <ATTINY_params+0x1a>
    1634:	10 92 84 02 	sts	0x0284, r1	; 0x800284 <ATTINY_params+0x1d>
    1638:	10 92 83 02 	sts	0x0283, r1	; 0x800283 <ATTINY_params+0x1c>
    163c:	80 e9       	ldi	r24, 0x90	; 144
    163e:	91 e0       	ldi	r25, 0x01	; 1
    1640:	90 93 68 02 	sts	0x0268, r25	; 0x800268 <ATTINY_params+0x1>
    1644:	80 93 67 02 	sts	0x0267, r24	; 0x800267 <ATTINY_params>
    1648:	90 93 6a 02 	sts	0x026A, r25	; 0x80026a <ATTINY_params+0x3>
    164c:	80 93 69 02 	sts	0x0269, r24	; 0x800269 <ATTINY_params+0x2>
    1650:	90 93 6c 02 	sts	0x026C, r25	; 0x80026c <ATTINY_params+0x5>
    1654:	80 93 6b 02 	sts	0x026B, r24	; 0x80026b <ATTINY_params+0x4>
    1658:	90 93 6e 02 	sts	0x026E, r25	; 0x80026e <ATTINY_params+0x7>
    165c:	80 93 6d 02 	sts	0x026D, r24	; 0x80026d <ATTINY_params+0x6>
    1660:	90 93 70 02 	sts	0x0270, r25	; 0x800270 <ATTINY_params+0x9>
    1664:	80 93 6f 02 	sts	0x026F, r24	; 0x80026f <ATTINY_params+0x8>
    1668:	84 e3       	ldi	r24, 0x34	; 52
    166a:	98 e0       	ldi	r25, 0x08	; 8
    166c:	90 93 72 02 	sts	0x0272, r25	; 0x800272 <ATTINY_params+0xb>
    1670:	80 93 71 02 	sts	0x0271, r24	; 0x800271 <ATTINY_params+0xa>
    1674:	90 93 74 02 	sts	0x0274, r25	; 0x800274 <ATTINY_params+0xd>
    1678:	80 93 73 02 	sts	0x0273, r24	; 0x800273 <ATTINY_params+0xc>
    167c:	90 93 76 02 	sts	0x0276, r25	; 0x800276 <ATTINY_params+0xf>
    1680:	80 93 75 02 	sts	0x0275, r24	; 0x800275 <ATTINY_params+0xe>
    1684:	90 93 78 02 	sts	0x0278, r25	; 0x800278 <ATTINY_params+0x11>
    1688:	80 93 77 02 	sts	0x0277, r24	; 0x800277 <ATTINY_params+0x10>
    168c:	90 93 7a 02 	sts	0x027A, r25	; 0x80027a <ATTINY_params+0x13>
    1690:	80 93 79 02 	sts	0x0279, r24	; 0x800279 <ATTINY_params+0x12>
    1694:	08 95       	ret

00001696 <TMRSRVC_delay>:
    1696:	0f 93       	push	r16
    1698:	1f 93       	push	r17
    169a:	df 93       	push	r29
    169c:	cf 93       	push	r28
    169e:	cd b7       	in	r28, 0x3d	; 61
    16a0:	de b7       	in	r29, 0x3e	; 62
    16a2:	29 97       	sbiw	r28, 0x09	; 9
    16a4:	0f b6       	in	r0, 0x3f	; 63
    16a6:	f8 94       	cli
    16a8:	de bf       	out	0x3e, r29	; 62
    16aa:	0f be       	out	0x3f, r0	; 63
    16ac:	cd bf       	out	0x3d, r28	; 61
    16ae:	8c 01       	movw	r16, r24
    16b0:	88 e0       	ldi	r24, 0x08	; 8
    16b2:	0e 94 74 0a 	call	0x14e8	; 0x14e8 <SYS_isOpen>
    16b6:	88 23       	and	r24, r24
    16b8:	11 f4       	brne	.+4      	; 0x16be <TMRSRVC_delay+0x28>
    16ba:	91 e0       	ldi	r25, 0x01	; 1
    16bc:	0d c0       	rjmp	.+26     	; 0x16d8 <TMRSRVC_delay+0x42>
    16be:	ce 01       	movw	r24, r28
    16c0:	01 96       	adiw	r24, 0x01	; 1
    16c2:	61 e0       	ldi	r22, 0x01	; 1
    16c4:	40 e0       	ldi	r20, 0x00	; 0
    16c6:	98 01       	movw	r18, r16
    16c8:	0e 94 78 0b 	call	0x16f0	; 0x16f0 <TMRSRVC_new>
    16cc:	98 2f       	mov	r25, r24
    16ce:	88 23       	and	r24, r24
    16d0:	19 f4       	brne	.+6      	; 0x16d8 <TMRSRVC_delay+0x42>
    16d2:	8f 81       	ldd	r24, Y+7	; 0x07
    16d4:	88 23       	and	r24, r24
    16d6:	e9 f3       	breq	.-6      	; 0x16d2 <TMRSRVC_delay+0x3c>
    16d8:	89 2f       	mov	r24, r25
    16da:	29 96       	adiw	r28, 0x09	; 9
    16dc:	0f b6       	in	r0, 0x3f	; 63
    16de:	f8 94       	cli
    16e0:	de bf       	out	0x3e, r29	; 62
    16e2:	0f be       	out	0x3f, r0	; 63
    16e4:	cd bf       	out	0x3d, r28	; 61
    16e6:	cf 91       	pop	r28
    16e8:	df 91       	pop	r29
    16ea:	1f 91       	pop	r17
    16ec:	0f 91       	pop	r16
    16ee:	08 95       	ret

000016f0 <TMRSRVC_new>:
    16f0:	ef 92       	push	r14
    16f2:	ff 92       	push	r15
    16f4:	0f 93       	push	r16
    16f6:	1f 93       	push	r17
    16f8:	cf 93       	push	r28
    16fa:	df 93       	push	r29
    16fc:	ec 01       	movw	r28, r24
    16fe:	f6 2e       	mov	r15, r22
    1700:	e4 2e       	mov	r14, r20
    1702:	89 01       	movw	r16, r18
    1704:	88 e0       	ldi	r24, 0x08	; 8
    1706:	0e 94 74 0a 	call	0x14e8	; 0x14e8 <SYS_isOpen>
    170a:	88 23       	and	r24, r24
    170c:	11 f4       	brne	.+4      	; 0x1712 <TMRSRVC_new+0x22>
    170e:	81 e0       	ldi	r24, 0x01	; 1
    1710:	26 c0       	rjmp	.+76     	; 0x175e <TMRSRVC_new+0x6e>
    1712:	84 e0       	ldi	r24, 0x04	; 4
    1714:	90 e0       	ldi	r25, 0x00	; 0
    1716:	0e 94 10 24 	call	0x4820	; 0x4820 <malloc>
    171a:	fc 01       	movw	r30, r24
    171c:	00 97       	sbiw	r24, 0x00	; 0
    171e:	11 f4       	brne	.+4      	; 0x1724 <TMRSRVC_new+0x34>
    1720:	82 e0       	ldi	r24, 0x02	; 2
    1722:	1d c0       	rjmp	.+58     	; 0x175e <TMRSRVC_new+0x6e>
    1724:	f9 82       	std	Y+1, r15	; 0x01
    1726:	f0 fc       	sbrc	r15, 0
    1728:	1e 82       	std	Y+6, r1	; 0x06
    172a:	81 e0       	ldi	r24, 0x01	; 1
    172c:	e8 16       	cp	r14, r24
    172e:	19 f4       	brne	.+6      	; 0x1736 <TMRSRVC_new+0x46>
    1730:	89 81       	ldd	r24, Y+1	; 0x01
    1732:	84 60       	ori	r24, 0x04	; 4
    1734:	89 83       	std	Y+1, r24	; 0x01
    1736:	89 81       	ldd	r24, Y+1	; 0x01
    1738:	88 60       	ori	r24, 0x08	; 8
    173a:	89 83       	std	Y+1, r24	; 0x01
    173c:	1b 83       	std	Y+3, r17	; 0x03
    173e:	0a 83       	std	Y+2, r16	; 0x02
    1740:	1d 83       	std	Y+5, r17	; 0x05
    1742:	0c 83       	std	Y+4, r16	; 0x04
    1744:	d1 83       	std	Z+1, r29	; 0x01
    1746:	c0 83       	st	Z, r28
    1748:	13 82       	std	Z+3, r1	; 0x03
    174a:	12 82       	std	Z+2, r1	; 0x02
    174c:	81 e0       	ldi	r24, 0x01	; 1
    174e:	80 93 d9 01 	sts	0x01D9, r24	; 0x8001d9 <timer_busy_status>
    1752:	cf 01       	movw	r24, r30
    1754:	0e 94 b6 0b 	call	0x176c	; 0x176c <TMRSRVC_insert>
    1758:	10 92 d9 01 	sts	0x01D9, r1	; 0x8001d9 <timer_busy_status>
    175c:	80 e0       	ldi	r24, 0x00	; 0
    175e:	df 91       	pop	r29
    1760:	cf 91       	pop	r28
    1762:	1f 91       	pop	r17
    1764:	0f 91       	pop	r16
    1766:	ff 90       	pop	r15
    1768:	ef 90       	pop	r14
    176a:	08 95       	ret

0000176c <TMRSRVC_insert>:
    176c:	cf 92       	push	r12
    176e:	df 92       	push	r13
    1770:	ef 92       	push	r14
    1772:	ff 92       	push	r15
    1774:	0f 93       	push	r16
    1776:	1f 93       	push	r17
    1778:	cf 93       	push	r28
    177a:	df 93       	push	r29
    177c:	ec 01       	movw	r28, r24
    177e:	80 91 85 02 	lds	r24, 0x0285	; 0x800285 <tmrNodes>
    1782:	88 23       	and	r24, r24
    1784:	39 f4       	brne	.+14     	; 0x1794 <TMRSRVC_insert+0x28>
    1786:	d0 93 87 02 	sts	0x0287, r29	; 0x800287 <tmrNodes+0x2>
    178a:	c0 93 86 02 	sts	0x0286, r28	; 0x800286 <tmrNodes+0x1>
    178e:	0e 94 36 13 	call	0x266c	; 0x266c <TMRSRVC_start>
    1792:	47 c0       	rjmp	.+142    	; 0x1822 <TMRSRVC_insert+0xb6>
    1794:	c0 90 86 02 	lds	r12, 0x0286	; 0x800286 <tmrNodes+0x1>
    1798:	d0 90 87 02 	lds	r13, 0x0287	; 0x800287 <tmrNodes+0x2>
    179c:	00 e0       	ldi	r16, 0x00	; 0
    179e:	10 e0       	ldi	r17, 0x00	; 0
    17a0:	ee 24       	eor	r14, r14
    17a2:	ff 24       	eor	r15, r15
    17a4:	37 c0       	rjmp	.+110    	; 0x1814 <TMRSRVC_insert+0xa8>
    17a6:	a8 81       	ld	r26, Y
    17a8:	b9 81       	ldd	r27, Y+1	; 0x01
    17aa:	fd 01       	movw	r30, r26
    17ac:	64 81       	ldd	r22, Z+4	; 0x04
    17ae:	75 81       	ldd	r23, Z+5	; 0x05
    17b0:	f6 01       	movw	r30, r12
    17b2:	40 81       	ld	r20, Z
    17b4:	51 81       	ldd	r21, Z+1	; 0x01
    17b6:	fa 01       	movw	r30, r20
    17b8:	84 81       	ldd	r24, Z+4	; 0x04
    17ba:	95 81       	ldd	r25, Z+5	; 0x05
    17bc:	9b 01       	movw	r18, r22
    17be:	28 1b       	sub	r18, r24
    17c0:	39 0b       	sbc	r19, r25
    17c2:	37 ff       	sbrs	r19, 7
    17c4:	0f c0       	rjmp	.+30     	; 0x17e4 <TMRSRVC_insert+0x78>
    17c6:	86 1b       	sub	r24, r22
    17c8:	97 0b       	sbc	r25, r23
    17ca:	95 83       	std	Z+5, r25	; 0x05
    17cc:	84 83       	std	Z+4, r24	; 0x04
    17ce:	db 82       	std	Y+3, r13	; 0x03
    17d0:	ca 82       	std	Y+2, r12	; 0x02
    17d2:	01 2b       	or	r16, r17
    17d4:	29 f4       	brne	.+10     	; 0x17e0 <TMRSRVC_insert+0x74>
    17d6:	d0 93 87 02 	sts	0x0287, r29	; 0x800287 <tmrNodes+0x2>
    17da:	c0 93 86 02 	sts	0x0286, r28	; 0x800286 <tmrNodes+0x1>
    17de:	21 c0       	rjmp	.+66     	; 0x1822 <TMRSRVC_insert+0xb6>
    17e0:	f7 01       	movw	r30, r14
    17e2:	0c c0       	rjmp	.+24     	; 0x17fc <TMRSRVC_insert+0x90>
    17e4:	f6 01       	movw	r30, r12
    17e6:	82 81       	ldd	r24, Z+2	; 0x02
    17e8:	93 81       	ldd	r25, Z+3	; 0x03
    17ea:	21 15       	cp	r18, r1
    17ec:	31 05       	cpc	r19, r1
    17ee:	49 f4       	brne	.+18     	; 0x1802 <TMRSRVC_insert+0x96>
    17f0:	fd 01       	movw	r30, r26
    17f2:	15 82       	std	Z+5, r1	; 0x05
    17f4:	14 82       	std	Z+4, r1	; 0x04
    17f6:	9b 83       	std	Y+3, r25	; 0x03
    17f8:	8a 83       	std	Y+2, r24	; 0x02
    17fa:	f6 01       	movw	r30, r12
    17fc:	d3 83       	std	Z+3, r29	; 0x03
    17fe:	c2 83       	std	Z+2, r28	; 0x02
    1800:	10 c0       	rjmp	.+32     	; 0x1822 <TMRSRVC_insert+0xb6>
    1802:	fd 01       	movw	r30, r26
    1804:	35 83       	std	Z+5, r19	; 0x05
    1806:	24 83       	std	Z+4, r18	; 0x04
    1808:	00 97       	sbiw	r24, 0x00	; 0
    180a:	b9 f3       	breq	.-18     	; 0x17fa <TMRSRVC_insert+0x8e>
    180c:	0f 5f       	subi	r16, 0xFF	; 255
    180e:	1f 4f       	sbci	r17, 0xFF	; 255
    1810:	76 01       	movw	r14, r12
    1812:	6c 01       	movw	r12, r24
    1814:	80 91 85 02 	lds	r24, 0x0285	; 0x800285 <tmrNodes>
    1818:	90 e0       	ldi	r25, 0x00	; 0
    181a:	08 17       	cp	r16, r24
    181c:	19 07       	cpc	r17, r25
    181e:	18 f2       	brcs	.-122    	; 0x17a6 <TMRSRVC_insert+0x3a>
    1820:	ec cf       	rjmp	.-40     	; 0x17fa <TMRSRVC_insert+0x8e>
    1822:	80 91 85 02 	lds	r24, 0x0285	; 0x800285 <tmrNodes>
    1826:	8f 5f       	subi	r24, 0xFF	; 255
    1828:	80 93 85 02 	sts	0x0285, r24	; 0x800285 <tmrNodes>
    182c:	df 91       	pop	r29
    182e:	cf 91       	pop	r28
    1830:	1f 91       	pop	r17
    1832:	0f 91       	pop	r16
    1834:	ff 90       	pop	r15
    1836:	ef 90       	pop	r14
    1838:	df 90       	pop	r13
    183a:	cf 90       	pop	r12
    183c:	08 95       	ret

0000183e <USONIC_open>:
    183e:	8c e0       	ldi	r24, 0x0C	; 12
    1840:	0e 94 67 0a 	call	0x14ce	; 0x14ce <SYS_increment_refcount>
    1844:	88 23       	and	r24, r24
    1846:	11 f0       	breq	.+4      	; 0x184c <USONIC_open+0xe>
    1848:	82 e0       	ldi	r24, 0x02	; 2
    184a:	08 95       	ret
    184c:	8b e0       	ldi	r24, 0x0B	; 11
    184e:	0e 94 74 0a 	call	0x14e8	; 0x14e8 <SYS_isOpen>
    1852:	88 23       	and	r24, r24
    1854:	a1 f4       	brne	.+40     	; 0x187e <USONIC_open+0x40>
    1856:	0e 94 24 0a 	call	0x1448	; 0x1448 <STOPWATCH_open>
    185a:	81 30       	cpi	r24, 0x01	; 1
    185c:	81 f4       	brne	.+32     	; 0x187e <USONIC_open+0x40>
    185e:	80 e0       	ldi	r24, 0x00	; 0
    1860:	0e 94 f9 12 	call	0x25f2	; 0x25f2 <ATTINY_power_cycle_IR>
    1864:	88 ee       	ldi	r24, 0xE8	; 232
    1866:	93 e0       	ldi	r25, 0x03	; 3
    1868:	24 ef       	ldi	r18, 0xF4	; 244
    186a:	31 e0       	ldi	r19, 0x01	; 1
    186c:	f9 01       	movw	r30, r18
    186e:	31 97       	sbiw	r30, 0x01	; 1
    1870:	f1 f7       	brne	.-4      	; 0x186e <USONIC_open+0x30>
    1872:	01 97       	sbiw	r24, 0x01	; 1
    1874:	d9 f7       	brne	.-10     	; 0x186c <USONIC_open+0x2e>
    1876:	0e 94 a8 0c 	call	0x1950	; 0x1950 <__USONIC_init>
    187a:	81 e0       	ldi	r24, 0x01	; 1
    187c:	08 95       	ret
    187e:	8c e0       	ldi	r24, 0x0C	; 12
    1880:	0e 94 57 0a 	call	0x14ae	; 0x14ae <SYS_decrement_refcount>
    1884:	87 e0       	ldi	r24, 0x07	; 7
    1886:	08 95       	ret

00001888 <USONIC_ping>:
    1888:	ef 92       	push	r14
    188a:	ff 92       	push	r15
    188c:	0f 93       	push	r16
    188e:	1f 93       	push	r17
    1890:	8c e0       	ldi	r24, 0x0C	; 12
    1892:	0e 94 74 0a 	call	0x14e8	; 0x14e8 <SYS_isOpen>
    1896:	88 23       	and	r24, r24
    1898:	09 f4       	brne	.+2      	; 0x189c <USONIC_ping+0x14>
    189a:	52 c0       	rjmp	.+164    	; 0x1940 <USONIC_ping+0xb8>
    189c:	0e 94 7a 12 	call	0x24f4	; 0x24f4 <STOPWATCH_reset>
    18a0:	13 9a       	sbi	0x02, 3	; 2
    18a2:	81 e2       	ldi	r24, 0x21	; 33
    18a4:	8a 95       	dec	r24
    18a6:	f1 f7       	brne	.-4      	; 0x18a4 <USONIC_ping+0x1c>
    18a8:	13 98       	cbi	0x02, 3	; 2
    18aa:	0b 98       	cbi	0x01, 3	; 1
    18ac:	ee 24       	eor	r14, r14
    18ae:	ff 24       	eor	r15, r15
    18b0:	87 01       	movw	r16, r14
    18b2:	0c c0       	rjmp	.+24     	; 0x18cc <USONIC_ping+0x44>
    18b4:	03 9b       	sbis	0x00, 3	; 0
    18b6:	0a c0       	rjmp	.+20     	; 0x18cc <USONIC_ping+0x44>
    18b8:	82 e4       	ldi	r24, 0x42	; 66
    18ba:	8a 95       	dec	r24
    18bc:	f1 f7       	brne	.-4      	; 0x18ba <USONIC_ping+0x32>
    18be:	80 b1       	in	r24, 0x00	; 0
    18c0:	86 95       	lsr	r24
    18c2:	86 95       	lsr	r24
    18c4:	86 95       	lsr	r24
    18c6:	80 ff       	sbrs	r24, 0
    18c8:	26 c0       	rjmp	.+76     	; 0x1916 <USONIC_ping+0x8e>
    18ca:	0f c0       	rjmp	.+30     	; 0x18ea <USONIC_ping+0x62>
    18cc:	08 94       	sec
    18ce:	e1 1c       	adc	r14, r1
    18d0:	f1 1c       	adc	r15, r1
    18d2:	01 1d       	adc	r16, r1
    18d4:	11 1d       	adc	r17, r1
    18d6:	80 e2       	ldi	r24, 0x20	; 32
    18d8:	e8 16       	cp	r14, r24
    18da:	81 ea       	ldi	r24, 0xA1	; 161
    18dc:	f8 06       	cpc	r15, r24
    18de:	87 e0       	ldi	r24, 0x07	; 7
    18e0:	08 07       	cpc	r16, r24
    18e2:	80 e0       	ldi	r24, 0x00	; 0
    18e4:	18 07       	cpc	r17, r24
    18e6:	31 f7       	brne	.-52     	; 0x18b4 <USONIC_ping+0x2c>
    18e8:	22 c0       	rjmp	.+68     	; 0x192e <USONIC_ping+0xa6>
    18ea:	0e 94 84 12 	call	0x2508	; 0x2508 <STOPWATCH_start>
    18ee:	ee 24       	eor	r14, r14
    18f0:	ff 24       	eor	r15, r15
    18f2:	87 01       	movw	r16, r14
    18f4:	02 c0       	rjmp	.+4      	; 0x18fa <USONIC_ping+0x72>
    18f6:	03 9b       	sbis	0x00, 3	; 0
    18f8:	0e c0       	rjmp	.+28     	; 0x1916 <USONIC_ping+0x8e>
    18fa:	08 94       	sec
    18fc:	e1 1c       	adc	r14, r1
    18fe:	f1 1c       	adc	r15, r1
    1900:	01 1d       	adc	r16, r1
    1902:	11 1d       	adc	r17, r1
    1904:	90 e2       	ldi	r25, 0x20	; 32
    1906:	e9 16       	cp	r14, r25
    1908:	91 ea       	ldi	r25, 0xA1	; 161
    190a:	f9 06       	cpc	r15, r25
    190c:	97 e0       	ldi	r25, 0x07	; 7
    190e:	09 07       	cpc	r16, r25
    1910:	90 e0       	ldi	r25, 0x00	; 0
    1912:	19 07       	cpc	r17, r25
    1914:	81 f7       	brne	.-32     	; 0x18f6 <USONIC_ping+0x6e>
    1916:	0e 94 8c 12 	call	0x2518	; 0x2518 <STOPWATCH_stop>
    191a:	80 e0       	ldi	r24, 0x00	; 0
    191c:	90 e2       	ldi	r25, 0x20	; 32
    191e:	e9 16       	cp	r14, r25
    1920:	91 ea       	ldi	r25, 0xA1	; 161
    1922:	f9 06       	cpc	r15, r25
    1924:	97 e0       	ldi	r25, 0x07	; 7
    1926:	09 07       	cpc	r16, r25
    1928:	90 e0       	ldi	r25, 0x00	; 0
    192a:	19 07       	cpc	r17, r25
    192c:	08 f0       	brcs	.+2      	; 0x1930 <USONIC_ping+0xa8>
    192e:	81 e0       	ldi	r24, 0x01	; 1
    1930:	0b 9a       	sbi	0x01, 3	; 1
    1932:	13 98       	cbi	0x02, 3	; 2
    1934:	81 30       	cpi	r24, 0x01	; 1
    1936:	21 f0       	breq	.+8      	; 0x1940 <USONIC_ping+0xb8>
    1938:	0e 94 74 12 	call	0x24e8	; 0x24e8 <STOPWATCH_get_ticks>
    193c:	9c 01       	movw	r18, r24
    193e:	02 c0       	rjmp	.+4      	; 0x1944 <USONIC_ping+0xbc>
    1940:	20 e0       	ldi	r18, 0x00	; 0
    1942:	30 e0       	ldi	r19, 0x00	; 0
    1944:	c9 01       	movw	r24, r18
    1946:	1f 91       	pop	r17
    1948:	0f 91       	pop	r16
    194a:	ff 90       	pop	r15
    194c:	ef 90       	pop	r14
    194e:	08 95       	ret

00001950 <__USONIC_init>:
    1950:	0b 9a       	sbi	0x01, 3	; 1
    1952:	13 98       	cbi	0x02, 3	; 2
    1954:	08 95       	ret

00001956 <CBOT_init>:
    1956:	0e 94 a5 12 	call	0x254a	; 0x254a <SYS_init>
    195a:	0e 94 dc 0f 	call	0x1fb8	; 0x1fb8 <ATMEGA_open>
    195e:	0e 94 0d 0f 	call	0x1e1a	; 0x1e1a <ISR_open>
    1962:	0e 94 1a 13 	call	0x2634	; 0x2634 <TMRSRVC_open>
    1966:	0e 94 f0 04 	call	0x9e0	; 0x9e0 <SPI_open>
    196a:	0e 94 e6 0a 	call	0x15cc	; 0x15cc <ATTINY_open>
    196e:	78 94       	sei
    1970:	08 95       	ret

00001972 <CBOT_ISR_init>:
    1972:	00 00       	nop
    1974:	08 95       	ret

00001976 <__vector_16>:
    1976:	1f 92       	push	r1
    1978:	0f 92       	push	r0
    197a:	0f b6       	in	r0, 0x3f	; 63
    197c:	0f 92       	push	r0
    197e:	11 24       	eor	r1, r1
    1980:	2f 93       	push	r18
    1982:	3f 93       	push	r19
    1984:	4f 93       	push	r20
    1986:	5f 93       	push	r21
    1988:	6f 93       	push	r22
    198a:	7f 93       	push	r23
    198c:	8f 93       	push	r24
    198e:	9f 93       	push	r25
    1990:	af 93       	push	r26
    1992:	bf 93       	push	r27
    1994:	ef 93       	push	r30
    1996:	ff 93       	push	r31
    1998:	e0 91 99 01 	lds	r30, 0x0199	; 0x800199 <CBOT_ISR_vtable+0x20>
    199c:	f0 91 9a 01 	lds	r31, 0x019A	; 0x80019a <CBOT_ISR_vtable+0x21>
    19a0:	30 97       	sbiw	r30, 0x00	; 0
    19a2:	09 f0       	breq	.+2      	; 0x19a6 <__vector_16+0x30>
    19a4:	09 95       	icall
    19a6:	ff 91       	pop	r31
    19a8:	ef 91       	pop	r30
    19aa:	bf 91       	pop	r27
    19ac:	af 91       	pop	r26
    19ae:	9f 91       	pop	r25
    19b0:	8f 91       	pop	r24
    19b2:	7f 91       	pop	r23
    19b4:	6f 91       	pop	r22
    19b6:	5f 91       	pop	r21
    19b8:	4f 91       	pop	r20
    19ba:	3f 91       	pop	r19
    19bc:	2f 91       	pop	r18
    19be:	0f 90       	pop	r0
    19c0:	0f be       	out	0x3f, r0	; 63
    19c2:	0f 90       	pop	r0
    19c4:	1f 90       	pop	r1
    19c6:	18 95       	reti

000019c8 <__vector_17>:
    19c8:	1f 92       	push	r1
    19ca:	0f 92       	push	r0
    19cc:	0f b6       	in	r0, 0x3f	; 63
    19ce:	0f 92       	push	r0
    19d0:	11 24       	eor	r1, r1
    19d2:	2f 93       	push	r18
    19d4:	3f 93       	push	r19
    19d6:	4f 93       	push	r20
    19d8:	5f 93       	push	r21
    19da:	6f 93       	push	r22
    19dc:	7f 93       	push	r23
    19de:	8f 93       	push	r24
    19e0:	9f 93       	push	r25
    19e2:	af 93       	push	r26
    19e4:	bf 93       	push	r27
    19e6:	ef 93       	push	r30
    19e8:	ff 93       	push	r31
    19ea:	e0 91 9b 01 	lds	r30, 0x019B	; 0x80019b <CBOT_ISR_vtable+0x22>
    19ee:	f0 91 9c 01 	lds	r31, 0x019C	; 0x80019c <CBOT_ISR_vtable+0x23>
    19f2:	30 97       	sbiw	r30, 0x00	; 0
    19f4:	09 f0       	breq	.+2      	; 0x19f8 <__vector_17+0x30>
    19f6:	09 95       	icall
    19f8:	ff 91       	pop	r31
    19fa:	ef 91       	pop	r30
    19fc:	bf 91       	pop	r27
    19fe:	af 91       	pop	r26
    1a00:	9f 91       	pop	r25
    1a02:	8f 91       	pop	r24
    1a04:	7f 91       	pop	r23
    1a06:	6f 91       	pop	r22
    1a08:	5f 91       	pop	r21
    1a0a:	4f 91       	pop	r20
    1a0c:	3f 91       	pop	r19
    1a0e:	2f 91       	pop	r18
    1a10:	0f 90       	pop	r0
    1a12:	0f be       	out	0x3f, r0	; 63
    1a14:	0f 90       	pop	r0
    1a16:	1f 90       	pop	r1
    1a18:	18 95       	reti

00001a1a <__vector_18>:
    1a1a:	1f 92       	push	r1
    1a1c:	0f 92       	push	r0
    1a1e:	0f b6       	in	r0, 0x3f	; 63
    1a20:	0f 92       	push	r0
    1a22:	11 24       	eor	r1, r1
    1a24:	2f 93       	push	r18
    1a26:	3f 93       	push	r19
    1a28:	4f 93       	push	r20
    1a2a:	5f 93       	push	r21
    1a2c:	6f 93       	push	r22
    1a2e:	7f 93       	push	r23
    1a30:	8f 93       	push	r24
    1a32:	9f 93       	push	r25
    1a34:	af 93       	push	r26
    1a36:	bf 93       	push	r27
    1a38:	ef 93       	push	r30
    1a3a:	ff 93       	push	r31
    1a3c:	e0 91 9d 01 	lds	r30, 0x019D	; 0x80019d <CBOT_ISR_vtable+0x24>
    1a40:	f0 91 9e 01 	lds	r31, 0x019E	; 0x80019e <CBOT_ISR_vtable+0x25>
    1a44:	30 97       	sbiw	r30, 0x00	; 0
    1a46:	09 f0       	breq	.+2      	; 0x1a4a <__vector_18+0x30>
    1a48:	09 95       	icall
    1a4a:	ff 91       	pop	r31
    1a4c:	ef 91       	pop	r30
    1a4e:	bf 91       	pop	r27
    1a50:	af 91       	pop	r26
    1a52:	9f 91       	pop	r25
    1a54:	8f 91       	pop	r24
    1a56:	7f 91       	pop	r23
    1a58:	6f 91       	pop	r22
    1a5a:	5f 91       	pop	r21
    1a5c:	4f 91       	pop	r20
    1a5e:	3f 91       	pop	r19
    1a60:	2f 91       	pop	r18
    1a62:	0f 90       	pop	r0
    1a64:	0f be       	out	0x3f, r0	; 63
    1a66:	0f 90       	pop	r0
    1a68:	1f 90       	pop	r1
    1a6a:	18 95       	reti

00001a6c <__vector_9>:
    1a6c:	1f 92       	push	r1
    1a6e:	0f 92       	push	r0
    1a70:	0f b6       	in	r0, 0x3f	; 63
    1a72:	0f 92       	push	r0
    1a74:	11 24       	eor	r1, r1
    1a76:	2f 93       	push	r18
    1a78:	3f 93       	push	r19
    1a7a:	4f 93       	push	r20
    1a7c:	5f 93       	push	r21
    1a7e:	6f 93       	push	r22
    1a80:	7f 93       	push	r23
    1a82:	8f 93       	push	r24
    1a84:	9f 93       	push	r25
    1a86:	af 93       	push	r26
    1a88:	bf 93       	push	r27
    1a8a:	ef 93       	push	r30
    1a8c:	ff 93       	push	r31
    1a8e:	e0 91 8b 01 	lds	r30, 0x018B	; 0x80018b <CBOT_ISR_vtable+0x12>
    1a92:	f0 91 8c 01 	lds	r31, 0x018C	; 0x80018c <CBOT_ISR_vtable+0x13>
    1a96:	30 97       	sbiw	r30, 0x00	; 0
    1a98:	09 f0       	breq	.+2      	; 0x1a9c <__vector_9+0x30>
    1a9a:	09 95       	icall
    1a9c:	ff 91       	pop	r31
    1a9e:	ef 91       	pop	r30
    1aa0:	bf 91       	pop	r27
    1aa2:	af 91       	pop	r26
    1aa4:	9f 91       	pop	r25
    1aa6:	8f 91       	pop	r24
    1aa8:	7f 91       	pop	r23
    1aaa:	6f 91       	pop	r22
    1aac:	5f 91       	pop	r21
    1aae:	4f 91       	pop	r20
    1ab0:	3f 91       	pop	r19
    1ab2:	2f 91       	pop	r18
    1ab4:	0f 90       	pop	r0
    1ab6:	0f be       	out	0x3f, r0	; 63
    1ab8:	0f 90       	pop	r0
    1aba:	1f 90       	pop	r1
    1abc:	18 95       	reti

00001abe <__vector_10>:
    1abe:	1f 92       	push	r1
    1ac0:	0f 92       	push	r0
    1ac2:	0f b6       	in	r0, 0x3f	; 63
    1ac4:	0f 92       	push	r0
    1ac6:	11 24       	eor	r1, r1
    1ac8:	2f 93       	push	r18
    1aca:	3f 93       	push	r19
    1acc:	4f 93       	push	r20
    1ace:	5f 93       	push	r21
    1ad0:	6f 93       	push	r22
    1ad2:	7f 93       	push	r23
    1ad4:	8f 93       	push	r24
    1ad6:	9f 93       	push	r25
    1ad8:	af 93       	push	r26
    1ada:	bf 93       	push	r27
    1adc:	ef 93       	push	r30
    1ade:	ff 93       	push	r31
    1ae0:	e0 91 8d 01 	lds	r30, 0x018D	; 0x80018d <CBOT_ISR_vtable+0x14>
    1ae4:	f0 91 8e 01 	lds	r31, 0x018E	; 0x80018e <CBOT_ISR_vtable+0x15>
    1ae8:	30 97       	sbiw	r30, 0x00	; 0
    1aea:	09 f0       	breq	.+2      	; 0x1aee <__vector_10+0x30>
    1aec:	09 95       	icall
    1aee:	ff 91       	pop	r31
    1af0:	ef 91       	pop	r30
    1af2:	bf 91       	pop	r27
    1af4:	af 91       	pop	r26
    1af6:	9f 91       	pop	r25
    1af8:	8f 91       	pop	r24
    1afa:	7f 91       	pop	r23
    1afc:	6f 91       	pop	r22
    1afe:	5f 91       	pop	r21
    1b00:	4f 91       	pop	r20
    1b02:	3f 91       	pop	r19
    1b04:	2f 91       	pop	r18
    1b06:	0f 90       	pop	r0
    1b08:	0f be       	out	0x3f, r0	; 63
    1b0a:	0f 90       	pop	r0
    1b0c:	1f 90       	pop	r1
    1b0e:	18 95       	reti

00001b10 <__vector_11>:
    1b10:	1f 92       	push	r1
    1b12:	0f 92       	push	r0
    1b14:	0f b6       	in	r0, 0x3f	; 63
    1b16:	0f 92       	push	r0
    1b18:	11 24       	eor	r1, r1
    1b1a:	2f 93       	push	r18
    1b1c:	3f 93       	push	r19
    1b1e:	4f 93       	push	r20
    1b20:	5f 93       	push	r21
    1b22:	6f 93       	push	r22
    1b24:	7f 93       	push	r23
    1b26:	8f 93       	push	r24
    1b28:	9f 93       	push	r25
    1b2a:	af 93       	push	r26
    1b2c:	bf 93       	push	r27
    1b2e:	ef 93       	push	r30
    1b30:	ff 93       	push	r31
    1b32:	e0 91 8f 01 	lds	r30, 0x018F	; 0x80018f <CBOT_ISR_vtable+0x16>
    1b36:	f0 91 90 01 	lds	r31, 0x0190	; 0x800190 <CBOT_ISR_vtable+0x17>
    1b3a:	30 97       	sbiw	r30, 0x00	; 0
    1b3c:	09 f0       	breq	.+2      	; 0x1b40 <__vector_11+0x30>
    1b3e:	09 95       	icall
    1b40:	ff 91       	pop	r31
    1b42:	ef 91       	pop	r30
    1b44:	bf 91       	pop	r27
    1b46:	af 91       	pop	r26
    1b48:	9f 91       	pop	r25
    1b4a:	8f 91       	pop	r24
    1b4c:	7f 91       	pop	r23
    1b4e:	6f 91       	pop	r22
    1b50:	5f 91       	pop	r21
    1b52:	4f 91       	pop	r20
    1b54:	3f 91       	pop	r19
    1b56:	2f 91       	pop	r18
    1b58:	0f 90       	pop	r0
    1b5a:	0f be       	out	0x3f, r0	; 63
    1b5c:	0f 90       	pop	r0
    1b5e:	1f 90       	pop	r1
    1b60:	18 95       	reti

00001b62 <__vector_13>:
    1b62:	1f 92       	push	r1
    1b64:	0f 92       	push	r0
    1b66:	0f b6       	in	r0, 0x3f	; 63
    1b68:	0f 92       	push	r0
    1b6a:	11 24       	eor	r1, r1
    1b6c:	2f 93       	push	r18
    1b6e:	3f 93       	push	r19
    1b70:	4f 93       	push	r20
    1b72:	5f 93       	push	r21
    1b74:	6f 93       	push	r22
    1b76:	7f 93       	push	r23
    1b78:	8f 93       	push	r24
    1b7a:	9f 93       	push	r25
    1b7c:	af 93       	push	r26
    1b7e:	bf 93       	push	r27
    1b80:	ef 93       	push	r30
    1b82:	ff 93       	push	r31
    1b84:	e0 91 93 01 	lds	r30, 0x0193	; 0x800193 <CBOT_ISR_vtable+0x1a>
    1b88:	f0 91 94 01 	lds	r31, 0x0194	; 0x800194 <CBOT_ISR_vtable+0x1b>
    1b8c:	30 97       	sbiw	r30, 0x00	; 0
    1b8e:	09 f0       	breq	.+2      	; 0x1b92 <__vector_13+0x30>
    1b90:	09 95       	icall
    1b92:	ff 91       	pop	r31
    1b94:	ef 91       	pop	r30
    1b96:	bf 91       	pop	r27
    1b98:	af 91       	pop	r26
    1b9a:	9f 91       	pop	r25
    1b9c:	8f 91       	pop	r24
    1b9e:	7f 91       	pop	r23
    1ba0:	6f 91       	pop	r22
    1ba2:	5f 91       	pop	r21
    1ba4:	4f 91       	pop	r20
    1ba6:	3f 91       	pop	r19
    1ba8:	2f 91       	pop	r18
    1baa:	0f 90       	pop	r0
    1bac:	0f be       	out	0x3f, r0	; 63
    1bae:	0f 90       	pop	r0
    1bb0:	1f 90       	pop	r1
    1bb2:	18 95       	reti

00001bb4 <__vector_14>:
    1bb4:	1f 92       	push	r1
    1bb6:	0f 92       	push	r0
    1bb8:	0f b6       	in	r0, 0x3f	; 63
    1bba:	0f 92       	push	r0
    1bbc:	11 24       	eor	r1, r1
    1bbe:	2f 93       	push	r18
    1bc0:	3f 93       	push	r19
    1bc2:	4f 93       	push	r20
    1bc4:	5f 93       	push	r21
    1bc6:	6f 93       	push	r22
    1bc8:	7f 93       	push	r23
    1bca:	8f 93       	push	r24
    1bcc:	9f 93       	push	r25
    1bce:	af 93       	push	r26
    1bd0:	bf 93       	push	r27
    1bd2:	ef 93       	push	r30
    1bd4:	ff 93       	push	r31
    1bd6:	e0 91 95 01 	lds	r30, 0x0195	; 0x800195 <CBOT_ISR_vtable+0x1c>
    1bda:	f0 91 96 01 	lds	r31, 0x0196	; 0x800196 <CBOT_ISR_vtable+0x1d>
    1bde:	30 97       	sbiw	r30, 0x00	; 0
    1be0:	09 f0       	breq	.+2      	; 0x1be4 <__vector_14+0x30>
    1be2:	09 95       	icall
    1be4:	ff 91       	pop	r31
    1be6:	ef 91       	pop	r30
    1be8:	bf 91       	pop	r27
    1bea:	af 91       	pop	r26
    1bec:	9f 91       	pop	r25
    1bee:	8f 91       	pop	r24
    1bf0:	7f 91       	pop	r23
    1bf2:	6f 91       	pop	r22
    1bf4:	5f 91       	pop	r21
    1bf6:	4f 91       	pop	r20
    1bf8:	3f 91       	pop	r19
    1bfa:	2f 91       	pop	r18
    1bfc:	0f 90       	pop	r0
    1bfe:	0f be       	out	0x3f, r0	; 63
    1c00:	0f 90       	pop	r0
    1c02:	1f 90       	pop	r1
    1c04:	18 95       	reti

00001c06 <__vector_12>:
    1c06:	1f 92       	push	r1
    1c08:	0f 92       	push	r0
    1c0a:	0f b6       	in	r0, 0x3f	; 63
    1c0c:	0f 92       	push	r0
    1c0e:	11 24       	eor	r1, r1
    1c10:	2f 93       	push	r18
    1c12:	3f 93       	push	r19
    1c14:	4f 93       	push	r20
    1c16:	5f 93       	push	r21
    1c18:	6f 93       	push	r22
    1c1a:	7f 93       	push	r23
    1c1c:	8f 93       	push	r24
    1c1e:	9f 93       	push	r25
    1c20:	af 93       	push	r26
    1c22:	bf 93       	push	r27
    1c24:	ef 93       	push	r30
    1c26:	ff 93       	push	r31
    1c28:	e0 91 91 01 	lds	r30, 0x0191	; 0x800191 <CBOT_ISR_vtable+0x18>
    1c2c:	f0 91 92 01 	lds	r31, 0x0192	; 0x800192 <CBOT_ISR_vtable+0x19>
    1c30:	30 97       	sbiw	r30, 0x00	; 0
    1c32:	09 f0       	breq	.+2      	; 0x1c36 <__vector_12+0x30>
    1c34:	09 95       	icall
    1c36:	ff 91       	pop	r31
    1c38:	ef 91       	pop	r30
    1c3a:	bf 91       	pop	r27
    1c3c:	af 91       	pop	r26
    1c3e:	9f 91       	pop	r25
    1c40:	8f 91       	pop	r24
    1c42:	7f 91       	pop	r23
    1c44:	6f 91       	pop	r22
    1c46:	5f 91       	pop	r21
    1c48:	4f 91       	pop	r20
    1c4a:	3f 91       	pop	r19
    1c4c:	2f 91       	pop	r18
    1c4e:	0f 90       	pop	r0
    1c50:	0f be       	out	0x3f, r0	; 63
    1c52:	0f 90       	pop	r0
    1c54:	1f 90       	pop	r1
    1c56:	18 95       	reti

00001c58 <__vector_15>:
    1c58:	1f 92       	push	r1
    1c5a:	0f 92       	push	r0
    1c5c:	0f b6       	in	r0, 0x3f	; 63
    1c5e:	0f 92       	push	r0
    1c60:	11 24       	eor	r1, r1
    1c62:	2f 93       	push	r18
    1c64:	3f 93       	push	r19
    1c66:	4f 93       	push	r20
    1c68:	5f 93       	push	r21
    1c6a:	6f 93       	push	r22
    1c6c:	7f 93       	push	r23
    1c6e:	8f 93       	push	r24
    1c70:	9f 93       	push	r25
    1c72:	af 93       	push	r26
    1c74:	bf 93       	push	r27
    1c76:	ef 93       	push	r30
    1c78:	ff 93       	push	r31
    1c7a:	e0 91 97 01 	lds	r30, 0x0197	; 0x800197 <CBOT_ISR_vtable+0x1e>
    1c7e:	f0 91 98 01 	lds	r31, 0x0198	; 0x800198 <CBOT_ISR_vtable+0x1f>
    1c82:	30 97       	sbiw	r30, 0x00	; 0
    1c84:	09 f0       	breq	.+2      	; 0x1c88 <__vector_15+0x30>
    1c86:	09 95       	icall
    1c88:	ff 91       	pop	r31
    1c8a:	ef 91       	pop	r30
    1c8c:	bf 91       	pop	r27
    1c8e:	af 91       	pop	r26
    1c90:	9f 91       	pop	r25
    1c92:	8f 91       	pop	r24
    1c94:	7f 91       	pop	r23
    1c96:	6f 91       	pop	r22
    1c98:	5f 91       	pop	r21
    1c9a:	4f 91       	pop	r20
    1c9c:	3f 91       	pop	r19
    1c9e:	2f 91       	pop	r18
    1ca0:	0f 90       	pop	r0
    1ca2:	0f be       	out	0x3f, r0	; 63
    1ca4:	0f 90       	pop	r0
    1ca6:	1f 90       	pop	r1
    1ca8:	18 95       	reti

00001caa <__vector_4>:
    1caa:	1f 92       	push	r1
    1cac:	0f 92       	push	r0
    1cae:	0f b6       	in	r0, 0x3f	; 63
    1cb0:	0f 92       	push	r0
    1cb2:	11 24       	eor	r1, r1
    1cb4:	2f 93       	push	r18
    1cb6:	3f 93       	push	r19
    1cb8:	4f 93       	push	r20
    1cba:	5f 93       	push	r21
    1cbc:	6f 93       	push	r22
    1cbe:	7f 93       	push	r23
    1cc0:	8f 93       	push	r24
    1cc2:	9f 93       	push	r25
    1cc4:	af 93       	push	r26
    1cc6:	bf 93       	push	r27
    1cc8:	ef 93       	push	r30
    1cca:	ff 93       	push	r31
    1ccc:	e0 91 81 01 	lds	r30, 0x0181	; 0x800181 <CBOT_ISR_vtable+0x8>
    1cd0:	f0 91 82 01 	lds	r31, 0x0182	; 0x800182 <CBOT_ISR_vtable+0x9>
    1cd4:	30 97       	sbiw	r30, 0x00	; 0
    1cd6:	09 f0       	breq	.+2      	; 0x1cda <__vector_4+0x30>
    1cd8:	09 95       	icall
    1cda:	ff 91       	pop	r31
    1cdc:	ef 91       	pop	r30
    1cde:	bf 91       	pop	r27
    1ce0:	af 91       	pop	r26
    1ce2:	9f 91       	pop	r25
    1ce4:	8f 91       	pop	r24
    1ce6:	7f 91       	pop	r23
    1ce8:	6f 91       	pop	r22
    1cea:	5f 91       	pop	r21
    1cec:	4f 91       	pop	r20
    1cee:	3f 91       	pop	r19
    1cf0:	2f 91       	pop	r18
    1cf2:	0f 90       	pop	r0
    1cf4:	0f be       	out	0x3f, r0	; 63
    1cf6:	0f 90       	pop	r0
    1cf8:	1f 90       	pop	r1
    1cfa:	18 95       	reti

00001cfc <__vector_5>:
    1cfc:	1f 92       	push	r1
    1cfe:	0f 92       	push	r0
    1d00:	0f b6       	in	r0, 0x3f	; 63
    1d02:	0f 92       	push	r0
    1d04:	11 24       	eor	r1, r1
    1d06:	2f 93       	push	r18
    1d08:	3f 93       	push	r19
    1d0a:	4f 93       	push	r20
    1d0c:	5f 93       	push	r21
    1d0e:	6f 93       	push	r22
    1d10:	7f 93       	push	r23
    1d12:	8f 93       	push	r24
    1d14:	9f 93       	push	r25
    1d16:	af 93       	push	r26
    1d18:	bf 93       	push	r27
    1d1a:	ef 93       	push	r30
    1d1c:	ff 93       	push	r31
    1d1e:	e0 91 83 01 	lds	r30, 0x0183	; 0x800183 <CBOT_ISR_vtable+0xa>
    1d22:	f0 91 84 01 	lds	r31, 0x0184	; 0x800184 <CBOT_ISR_vtable+0xb>
    1d26:	30 97       	sbiw	r30, 0x00	; 0
    1d28:	09 f0       	breq	.+2      	; 0x1d2c <__vector_5+0x30>
    1d2a:	09 95       	icall
    1d2c:	ff 91       	pop	r31
    1d2e:	ef 91       	pop	r30
    1d30:	bf 91       	pop	r27
    1d32:	af 91       	pop	r26
    1d34:	9f 91       	pop	r25
    1d36:	8f 91       	pop	r24
    1d38:	7f 91       	pop	r23
    1d3a:	6f 91       	pop	r22
    1d3c:	5f 91       	pop	r21
    1d3e:	4f 91       	pop	r20
    1d40:	3f 91       	pop	r19
    1d42:	2f 91       	pop	r18
    1d44:	0f 90       	pop	r0
    1d46:	0f be       	out	0x3f, r0	; 63
    1d48:	0f 90       	pop	r0
    1d4a:	1f 90       	pop	r1
    1d4c:	18 95       	reti

00001d4e <__vector_6>:
    1d4e:	1f 92       	push	r1
    1d50:	0f 92       	push	r0
    1d52:	0f b6       	in	r0, 0x3f	; 63
    1d54:	0f 92       	push	r0
    1d56:	11 24       	eor	r1, r1
    1d58:	2f 93       	push	r18
    1d5a:	3f 93       	push	r19
    1d5c:	4f 93       	push	r20
    1d5e:	5f 93       	push	r21
    1d60:	6f 93       	push	r22
    1d62:	7f 93       	push	r23
    1d64:	8f 93       	push	r24
    1d66:	9f 93       	push	r25
    1d68:	af 93       	push	r26
    1d6a:	bf 93       	push	r27
    1d6c:	ef 93       	push	r30
    1d6e:	ff 93       	push	r31
    1d70:	e0 91 85 01 	lds	r30, 0x0185	; 0x800185 <CBOT_ISR_vtable+0xc>
    1d74:	f0 91 86 01 	lds	r31, 0x0186	; 0x800186 <CBOT_ISR_vtable+0xd>
    1d78:	30 97       	sbiw	r30, 0x00	; 0
    1d7a:	09 f0       	breq	.+2      	; 0x1d7e <__vector_6+0x30>
    1d7c:	09 95       	icall
    1d7e:	ff 91       	pop	r31
    1d80:	ef 91       	pop	r30
    1d82:	bf 91       	pop	r27
    1d84:	af 91       	pop	r26
    1d86:	9f 91       	pop	r25
    1d88:	8f 91       	pop	r24
    1d8a:	7f 91       	pop	r23
    1d8c:	6f 91       	pop	r22
    1d8e:	5f 91       	pop	r21
    1d90:	4f 91       	pop	r20
    1d92:	3f 91       	pop	r19
    1d94:	2f 91       	pop	r18
    1d96:	0f 90       	pop	r0
    1d98:	0f be       	out	0x3f, r0	; 63
    1d9a:	0f 90       	pop	r0
    1d9c:	1f 90       	pop	r1
    1d9e:	18 95       	reti

00001da0 <__vector_7>:
    1da0:	1f 92       	push	r1
    1da2:	0f 92       	push	r0
    1da4:	0f b6       	in	r0, 0x3f	; 63
    1da6:	0f 92       	push	r0
    1da8:	11 24       	eor	r1, r1
    1daa:	2f 93       	push	r18
    1dac:	3f 93       	push	r19
    1dae:	4f 93       	push	r20
    1db0:	5f 93       	push	r21
    1db2:	6f 93       	push	r22
    1db4:	7f 93       	push	r23
    1db6:	8f 93       	push	r24
    1db8:	9f 93       	push	r25
    1dba:	af 93       	push	r26
    1dbc:	bf 93       	push	r27
    1dbe:	ef 93       	push	r30
    1dc0:	ff 93       	push	r31
    1dc2:	e0 91 87 01 	lds	r30, 0x0187	; 0x800187 <CBOT_ISR_vtable+0xe>
    1dc6:	f0 91 88 01 	lds	r31, 0x0188	; 0x800188 <CBOT_ISR_vtable+0xf>
    1dca:	30 97       	sbiw	r30, 0x00	; 0
    1dcc:	09 f0       	breq	.+2      	; 0x1dd0 <__vector_7+0x30>
    1dce:	09 95       	icall
    1dd0:	ff 91       	pop	r31
    1dd2:	ef 91       	pop	r30
    1dd4:	bf 91       	pop	r27
    1dd6:	af 91       	pop	r26
    1dd8:	9f 91       	pop	r25
    1dda:	8f 91       	pop	r24
    1ddc:	7f 91       	pop	r23
    1dde:	6f 91       	pop	r22
    1de0:	5f 91       	pop	r21
    1de2:	4f 91       	pop	r20
    1de4:	3f 91       	pop	r19
    1de6:	2f 91       	pop	r18
    1de8:	0f 90       	pop	r0
    1dea:	0f be       	out	0x3f, r0	; 63
    1dec:	0f 90       	pop	r0
    1dee:	1f 90       	pop	r1
    1df0:	18 95       	reti

00001df2 <ISR_attach>:
    1df2:	e8 2f       	mov	r30, r24
    1df4:	80 32       	cpi	r24, 0x20	; 32
    1df6:	68 f4       	brcc	.+26     	; 0x1e12 <ISR_attach+0x20>
    1df8:	80 51       	subi	r24, 0x10	; 16
    1dfa:	83 30       	cpi	r24, 0x03	; 3
    1dfc:	50 f0       	brcs	.+20     	; 0x1e12 <ISR_attach+0x20>
    1dfe:	f0 e0       	ldi	r31, 0x00	; 0
    1e00:	ee 0f       	add	r30, r30
    1e02:	ff 1f       	adc	r31, r31
    1e04:	e7 58       	subi	r30, 0x87	; 135
    1e06:	fe 4f       	sbci	r31, 0xFE	; 254
    1e08:	20 81       	ld	r18, Z
    1e0a:	31 81       	ldd	r19, Z+1	; 0x01
    1e0c:	71 83       	std	Z+1, r23	; 0x01
    1e0e:	60 83       	st	Z, r22
    1e10:	02 c0       	rjmp	.+4      	; 0x1e16 <ISR_attach+0x24>
    1e12:	20 e0       	ldi	r18, 0x00	; 0
    1e14:	30 e0       	ldi	r19, 0x00	; 0
    1e16:	c9 01       	movw	r24, r18
    1e18:	08 95       	ret

00001e1a <ISR_open>:
    1e1a:	80 e1       	ldi	r24, 0x10	; 16
    1e1c:	0e 94 67 0a 	call	0x14ce	; 0x14ce <SYS_increment_refcount>
    1e20:	88 23       	and	r24, r24
    1e22:	11 f0       	breq	.+4      	; 0x1e28 <ISR_open+0xe>
    1e24:	82 e0       	ldi	r24, 0x02	; 2
    1e26:	08 95       	ret
    1e28:	e9 e7       	ldi	r30, 0x79	; 121
    1e2a:	f1 e0       	ldi	r31, 0x01	; 1
    1e2c:	11 92       	st	Z+, r1
    1e2e:	11 92       	st	Z+, r1
    1e30:	81 e0       	ldi	r24, 0x01	; 1
    1e32:	e9 3b       	cpi	r30, 0xB9	; 185
    1e34:	f8 07       	cpc	r31, r24
    1e36:	d1 f7       	brne	.-12     	; 0x1e2c <ISR_open+0x12>
    1e38:	81 e0       	ldi	r24, 0x01	; 1
    1e3a:	08 95       	ret

00001e3c <__LCD_putchar>:
    1e3c:	ff 92       	push	r15
    1e3e:	0f 93       	push	r16
    1e40:	1f 93       	push	r17
    1e42:	cf 93       	push	r28
    1e44:	df 93       	push	r29
    1e46:	f8 2e       	mov	r15, r24
    1e48:	8a e0       	ldi	r24, 0x0A	; 10
    1e4a:	f8 16       	cp	r15, r24
    1e4c:	b1 f0       	breq	.+44     	; 0x1e7a <__LCD_putchar+0x3e>
    1e4e:	8f 15       	cp	r24, r15
    1e50:	48 f0       	brcs	.+18     	; 0x1e64 <__LCD_putchar+0x28>
    1e52:	e8 e0       	ldi	r30, 0x08	; 8
    1e54:	fe 16       	cp	r15, r30
    1e56:	b9 f1       	breq	.+110    	; 0x1ec6 <__LCD_putchar+0x8a>
    1e58:	ef 15       	cp	r30, r15
    1e5a:	38 f1       	brcs	.+78     	; 0x1eaa <__LCD_putchar+0x6e>
    1e5c:	f7 e0       	ldi	r31, 0x07	; 7
    1e5e:	ff 16       	cp	r15, r31
    1e60:	51 f4       	brne	.+20     	; 0x1e76 <__LCD_putchar+0x3a>
    1e62:	3b c0       	rjmp	.+118    	; 0x1eda <__LCD_putchar+0x9e>
    1e64:	8d e0       	ldi	r24, 0x0D	; 13
    1e66:	f8 16       	cp	r15, r24
    1e68:	59 f0       	breq	.+22     	; 0x1e80 <__LCD_putchar+0x44>
    1e6a:	eb e1       	ldi	r30, 0x1B	; 27
    1e6c:	fe 16       	cp	r15, r30
    1e6e:	89 f0       	breq	.+34     	; 0x1e92 <__LCD_putchar+0x56>
    1e70:	fc e0       	ldi	r31, 0x0C	; 12
    1e72:	ff 16       	cp	r15, r31
    1e74:	41 f0       	breq	.+16     	; 0x1e86 <__LCD_putchar+0x4a>
    1e76:	01 e0       	ldi	r16, 0x01	; 1
    1e78:	41 c0       	rjmp	.+130    	; 0x1efc <__LCD_putchar+0xc0>
    1e7a:	10 92 26 02 	sts	0x0226, r1	; 0x800226 <LCD_params>
    1e7e:	03 c0       	rjmp	.+6      	; 0x1e86 <__LCD_putchar+0x4a>
    1e80:	10 92 26 02 	sts	0x0226, r1	; 0x800226 <LCD_params>
    1e84:	3a c0       	rjmp	.+116    	; 0x1efa <__LCD_putchar+0xbe>
    1e86:	80 91 27 02 	lds	r24, 0x0227	; 0x800227 <LCD_params+0x1>
    1e8a:	81 50       	subi	r24, 0x01	; 1
    1e8c:	80 93 27 02 	sts	0x0227, r24	; 0x800227 <LCD_params+0x1>
    1e90:	34 c0       	rjmp	.+104    	; 0x1efa <__LCD_putchar+0xbe>
    1e92:	0e 94 a8 03 	call	0x750	; 0x750 <LCD_clear>
    1e96:	14 c0       	rjmp	.+40     	; 0x1ec0 <__LCD_putchar+0x84>
    1e98:	80 e0       	ldi	r24, 0x00	; 0
    1e9a:	61 e0       	ldi	r22, 0x01	; 1
    1e9c:	0e 94 a5 04 	call	0x94a	; 0x94a <LCD_write>
    1ea0:	80 91 26 02 	lds	r24, 0x0226	; 0x800226 <LCD_params>
    1ea4:	8f 5f       	subi	r24, 0xFF	; 255
    1ea6:	80 93 26 02 	sts	0x0226, r24	; 0x800226 <LCD_params>
    1eaa:	80 91 26 02 	lds	r24, 0x0226	; 0x800226 <LCD_params>
    1eae:	87 ff       	sbrs	r24, 7
    1eb0:	f3 cf       	rjmp	.-26     	; 0x1e98 <__LCD_putchar+0x5c>
    1eb2:	10 92 26 02 	sts	0x0226, r1	; 0x800226 <LCD_params>
    1eb6:	80 91 27 02 	lds	r24, 0x0227	; 0x800227 <LCD_params+0x1>
    1eba:	81 50       	subi	r24, 0x01	; 1
    1ebc:	80 93 27 02 	sts	0x0227, r24	; 0x800227 <LCD_params+0x1>
    1ec0:	00 e0       	ldi	r16, 0x00	; 0
    1ec2:	11 e0       	ldi	r17, 0x01	; 1
    1ec4:	1c c0       	rjmp	.+56     	; 0x1efe <__LCD_putchar+0xc2>
    1ec6:	80 91 26 02 	lds	r24, 0x0226	; 0x800226 <LCD_params>
    1eca:	88 23       	and	r24, r24
    1ecc:	b1 f0       	breq	.+44     	; 0x1efa <__LCD_putchar+0xbe>
    1ece:	80 91 26 02 	lds	r24, 0x0226	; 0x800226 <LCD_params>
    1ed2:	86 50       	subi	r24, 0x06	; 6
    1ed4:	80 93 26 02 	sts	0x0226, r24	; 0x800226 <LCD_params>
    1ed8:	10 c0       	rjmp	.+32     	; 0x1efa <__LCD_putchar+0xbe>
    1eda:	81 e0       	ldi	r24, 0x01	; 1
    1edc:	0e 94 34 11 	call	0x2268	; 0x2268 <SPKR_open>
    1ee0:	64 ef       	ldi	r22, 0xF4	; 244
    1ee2:	71 e0       	ldi	r23, 0x01	; 1
    1ee4:	80 e0       	ldi	r24, 0x00	; 0
    1ee6:	90 e0       	ldi	r25, 0x00	; 0
    1ee8:	4d e7       	ldi	r20, 0x7D	; 125
    1eea:	50 e0       	ldi	r21, 0x00	; 0
    1eec:	24 e6       	ldi	r18, 0x64	; 100
    1eee:	30 e0       	ldi	r19, 0x00	; 0
    1ef0:	0e 94 40 11 	call	0x2280	; 0x2280 <SPKR_play_beep>
    1ef4:	81 e0       	ldi	r24, 0x01	; 1
    1ef6:	0e 94 9b 10 	call	0x2136	; 0x2136 <SPKR_close>
    1efa:	00 e0       	ldi	r16, 0x00	; 0
    1efc:	10 e0       	ldi	r17, 0x00	; 0
    1efe:	80 91 27 02 	lds	r24, 0x0227	; 0x800227 <LCD_params+0x1>
    1f02:	60 91 26 02 	lds	r22, 0x0226	; 0x800226 <LCD_params>
    1f06:	0e 94 50 04 	call	0x8a0	; 0x8a0 <LCD_set_PGC_addr>
    1f0a:	00 23       	and	r16, r16
    1f0c:	51 f1       	breq	.+84     	; 0x1f62 <__LCD_putchar+0x126>
    1f0e:	85 e0       	ldi	r24, 0x05	; 5
    1f10:	f8 9e       	mul	r15, r24
    1f12:	c0 01       	movw	r24, r0
    1f14:	11 24       	eor	r1, r1
    1f16:	ec 01       	movw	r28, r24
    1f18:	cd 59       	subi	r28, 0x9D	; 157
    1f1a:	de 4f       	sbci	r29, 0xFE	; 254
    1f1c:	8c 01       	movw	r16, r24
    1f1e:	08 59       	subi	r16, 0x98	; 152
    1f20:	1e 4f       	sbci	r17, 0xFE	; 254
    1f22:	fe 01       	movw	r30, r28
    1f24:	84 91       	lpm	r24, Z
    1f26:	61 e0       	ldi	r22, 0x01	; 1
    1f28:	0e 94 a5 04 	call	0x94a	; 0x94a <LCD_write>
    1f2c:	21 96       	adiw	r28, 0x01	; 1
    1f2e:	c0 17       	cp	r28, r16
    1f30:	d1 07       	cpc	r29, r17
    1f32:	b9 f7       	brne	.-18     	; 0x1f22 <__LCD_putchar+0xe6>
    1f34:	80 e0       	ldi	r24, 0x00	; 0
    1f36:	61 e0       	ldi	r22, 0x01	; 1
    1f38:	0e 94 a5 04 	call	0x94a	; 0x94a <LCD_write>
    1f3c:	80 91 26 02 	lds	r24, 0x0226	; 0x800226 <LCD_params>
    1f40:	8a 5f       	subi	r24, 0xFA	; 250
    1f42:	80 93 26 02 	sts	0x0226, r24	; 0x800226 <LCD_params>
    1f46:	80 91 26 02 	lds	r24, 0x0226	; 0x800226 <LCD_params>
    1f4a:	90 e0       	ldi	r25, 0x00	; 0
    1f4c:	8c 37       	cpi	r24, 0x7C	; 124
    1f4e:	91 05       	cpc	r25, r1
    1f50:	3c f0       	brlt	.+14     	; 0x1f60 <__LCD_putchar+0x124>
    1f52:	10 92 26 02 	sts	0x0226, r1	; 0x800226 <LCD_params>
    1f56:	80 91 27 02 	lds	r24, 0x0227	; 0x800227 <LCD_params+0x1>
    1f5a:	81 50       	subi	r24, 0x01	; 1
    1f5c:	80 93 27 02 	sts	0x0227, r24	; 0x800227 <LCD_params+0x1>
    1f60:	11 e0       	ldi	r17, 0x01	; 1
    1f62:	80 91 27 02 	lds	r24, 0x0227	; 0x800227 <LCD_params+0x1>
    1f66:	83 70       	andi	r24, 0x03	; 3
    1f68:	80 93 27 02 	sts	0x0227, r24	; 0x800227 <LCD_params+0x1>
    1f6c:	11 30       	cpi	r17, 0x01	; 1
    1f6e:	59 f4       	brne	.+22     	; 0x1f86 <__LCD_putchar+0x14a>
    1f70:	80 91 28 02 	lds	r24, 0x0228	; 0x800228 <LCD_params+0x2>
    1f74:	81 30       	cpi	r24, 0x01	; 1
    1f76:	39 f4       	brne	.+14     	; 0x1f86 <__LCD_putchar+0x14a>
    1f78:	e0 91 29 02 	lds	r30, 0x0229	; 0x800229 <LCD_params+0x3>
    1f7c:	f0 91 2a 02 	lds	r31, 0x022A	; 0x80022a <LCD_params+0x4>
    1f80:	30 97       	sbiw	r30, 0x00	; 0
    1f82:	09 f0       	breq	.+2      	; 0x1f86 <__LCD_putchar+0x14a>
    1f84:	09 95       	icall
    1f86:	80 e0       	ldi	r24, 0x00	; 0
    1f88:	90 e0       	ldi	r25, 0x00	; 0
    1f8a:	df 91       	pop	r29
    1f8c:	cf 91       	pop	r28
    1f8e:	1f 91       	pop	r17
    1f90:	0f 91       	pop	r16
    1f92:	ff 90       	pop	r15
    1f94:	08 95       	ret

00001f96 <LED_clr_pattern>:
    1f96:	1f 93       	push	r17
    1f98:	18 2f       	mov	r17, r24
    1f9a:	86 e0       	ldi	r24, 0x06	; 6
    1f9c:	0e 94 74 0a 	call	0x14e8	; 0x14e8 <SYS_isOpen>
    1fa0:	88 23       	and	r24, r24
    1fa2:	19 f0       	breq	.+6      	; 0x1faa <LED_clr_pattern+0x14>
    1fa4:	81 2f       	mov	r24, r17
    1fa6:	0e 94 d7 0f 	call	0x1fae	; 0x1fae <__LED_clr_pattern>
    1faa:	1f 91       	pop	r17
    1fac:	08 95       	ret

00001fae <__LED_clr_pattern>:
    1fae:	85 fd       	sbrc	r24, 5
    1fb0:	5d 98       	cbi	0x0b, 5	; 11
    1fb2:	86 fd       	sbrc	r24, 6
    1fb4:	5e 98       	cbi	0x0b, 6	; 11
    1fb6:	08 95       	ret

00001fb8 <ATMEGA_open>:
    1fb8:	f8 94       	cli
    1fba:	0e 94 37 10 	call	0x206e	; 0x206e <__ATMEGA_init>
    1fbe:	81 e0       	ldi	r24, 0x01	; 1
    1fc0:	0e 94 e4 0f 	call	0x1fc8	; 0x1fc8 <ATMEGA_set_clk_mode>
    1fc4:	81 e0       	ldi	r24, 0x01	; 1
    1fc6:	08 95       	ret

00001fc8 <ATMEGA_set_clk_mode>:
    1fc8:	81 30       	cpi	r24, 0x01	; 1
    1fca:	49 f0       	breq	.+18     	; 0x1fde <ATMEGA_set_clk_mode+0x16>
    1fcc:	f8 94       	cli
    1fce:	81 30       	cpi	r24, 0x01	; 1
    1fd0:	20 f1       	brcs	.+72     	; 0x201a <ATMEGA_set_clk_mode+0x52>
    1fd2:	82 30       	cpi	r24, 0x02	; 2
    1fd4:	b1 f0       	breq	.+44     	; 0x2002 <ATMEGA_set_clk_mode+0x3a>
    1fd6:	83 30       	cpi	r24, 0x03	; 3
    1fd8:	09 f0       	breq	.+2      	; 0x1fdc <ATMEGA_set_clk_mode+0x14>
    1fda:	45 c0       	rjmp	.+138    	; 0x2066 <ATMEGA_set_clk_mode+0x9e>
    1fdc:	17 c0       	rjmp	.+46     	; 0x200c <ATMEGA_set_clk_mode+0x44>
    1fde:	2c 9a       	sbi	0x05, 4	; 5
    1fe0:	80 e8       	ldi	r24, 0x80	; 128
    1fe2:	80 93 61 00 	sts	0x0061, r24	; 0x800061 <__TEXT_REGION_LENGTH__+0x7e0061>
    1fe6:	10 92 61 00 	sts	0x0061, r1	; 0x800061 <__TEXT_REGION_LENGTH__+0x7e0061>
    1fea:	80 e0       	ldi	r24, 0x00	; 0
    1fec:	90 e0       	ldi	r25, 0x00	; 0
    1fee:	00 00       	nop
    1ff0:	01 96       	adiw	r24, 0x01	; 1
    1ff2:	88 32       	cpi	r24, 0x28	; 40
    1ff4:	91 05       	cpc	r25, r1
    1ff6:	d9 f7       	brne	.-10     	; 0x1fee <ATMEGA_set_clk_mode+0x26>
    1ff8:	10 92 68 00 	sts	0x0068, r1	; 0x800068 <__TEXT_REGION_LENGTH__+0x7e0068>
    1ffc:	10 92 6b 00 	sts	0x006B, r1	; 0x80006b <__TEXT_REGION_LENGTH__+0x7e006b>
    2000:	08 95       	ret
    2002:	80 e8       	ldi	r24, 0x80	; 128
    2004:	80 93 61 00 	sts	0x0061, r24	; 0x800061 <__TEXT_REGION_LENGTH__+0x7e0061>
    2008:	83 e0       	ldi	r24, 0x03	; 3
    200a:	04 c0       	rjmp	.+8      	; 0x2014 <ATMEGA_set_clk_mode+0x4c>
    200c:	80 e8       	ldi	r24, 0x80	; 128
    200e:	80 93 61 00 	sts	0x0061, r24	; 0x800061 <__TEXT_REGION_LENGTH__+0x7e0061>
    2012:	88 e0       	ldi	r24, 0x08	; 8
    2014:	80 93 61 00 	sts	0x0061, r24	; 0x800061 <__TEXT_REGION_LENGTH__+0x7e0061>
    2018:	28 c0       	rjmp	.+80     	; 0x206a <ATMEGA_set_clk_mode+0xa2>
    201a:	80 e0       	ldi	r24, 0x00	; 0
    201c:	90 e0       	ldi	r25, 0x00	; 0
    201e:	00 00       	nop
    2020:	01 96       	adiw	r24, 0x01	; 1
    2022:	2d e6       	ldi	r18, 0x6D	; 109
    2024:	80 36       	cpi	r24, 0x60	; 96
    2026:	92 07       	cpc	r25, r18
    2028:	d1 f7       	brne	.-12     	; 0x201e <ATMEGA_set_clk_mode+0x56>
    202a:	2c 98       	cbi	0x05, 4	; 5
    202c:	80 e0       	ldi	r24, 0x00	; 0
    202e:	90 e0       	ldi	r25, 0x00	; 0
    2030:	00 00       	nop
    2032:	01 96       	adiw	r24, 0x01	; 1
    2034:	2d e6       	ldi	r18, 0x6D	; 109
    2036:	80 36       	cpi	r24, 0x60	; 96
    2038:	92 07       	cpc	r25, r18
    203a:	d1 f7       	brne	.-12     	; 0x2030 <ATMEGA_set_clk_mode+0x68>
    203c:	10 92 7a 00 	sts	0x007A, r1	; 0x80007a <__TEXT_REGION_LENGTH__+0x7e007a>
    2040:	8f ef       	ldi	r24, 0xFF	; 255
    2042:	80 93 64 00 	sts	0x0064, r24	; 0x800064 <__TEXT_REGION_LENGTH__+0x7e0064>
    2046:	80 91 68 00 	lds	r24, 0x0068	; 0x800068 <__TEXT_REGION_LENGTH__+0x7e0068>
    204a:	81 60       	ori	r24, 0x01	; 1
    204c:	80 93 68 00 	sts	0x0068, r24	; 0x800068 <__TEXT_REGION_LENGTH__+0x7e0068>
    2050:	80 91 6b 00 	lds	r24, 0x006B	; 0x80006b <__TEXT_REGION_LENGTH__+0x7e006b>
    2054:	84 60       	ori	r24, 0x04	; 4
    2056:	80 93 6b 00 	sts	0x006B, r24	; 0x80006b <__TEXT_REGION_LENGTH__+0x7e006b>
    205a:	78 94       	sei
    205c:	83 b7       	in	r24, 0x33	; 51
    205e:	81 60       	ori	r24, 0x01	; 1
    2060:	83 bf       	out	0x33, r24	; 51
    2062:	88 95       	sleep
    2064:	08 95       	ret
    2066:	82 30       	cpi	r24, 0x02	; 2
    2068:	08 f0       	brcs	.+2      	; 0x206c <ATMEGA_set_clk_mode+0xa4>
    206a:	78 94       	sei
    206c:	08 95       	ret

0000206e <__ATMEGA_init>:
    206e:	24 9a       	sbi	0x04, 4	; 4
    2070:	2c 9a       	sbi	0x05, 4	; 5
    2072:	08 95       	ret

00002074 <SPI_default_config>:
    2074:	83 e5       	ldi	r24, 0x53	; 83
    2076:	8c bd       	out	0x2c, r24	; 44
    2078:	81 e0       	ldi	r24, 0x01	; 1
    207a:	8d bd       	out	0x2d, r24	; 45
    207c:	8d e0       	ldi	r24, 0x0D	; 13
    207e:	8a 95       	dec	r24
    2080:	f1 f7       	brne	.-4      	; 0x207e <SPI_default_config+0xa>
    2082:	08 95       	ret

00002084 <SPI_ATtiny0_config>:
    2084:	83 e5       	ldi	r24, 0x53	; 83
    2086:	8c bd       	out	0x2c, r24	; 44
    2088:	1d bc       	out	0x2d, r1	; 45
    208a:	84 ef       	ldi	r24, 0xF4	; 244
    208c:	91 e0       	ldi	r25, 0x01	; 1
    208e:	01 97       	sbiw	r24, 0x01	; 1
    2090:	f1 f7       	brne	.-4      	; 0x208e <SPI_ATtiny0_config+0xa>
    2092:	08 95       	ret

00002094 <SPI_PSXC_config>:
    2094:	8f e7       	ldi	r24, 0x7F	; 127
    2096:	8c bd       	out	0x2c, r24	; 44
    2098:	1d bc       	out	0x2d, r1	; 45
    209a:	84 ef       	ldi	r24, 0xF4	; 244
    209c:	91 e0       	ldi	r25, 0x01	; 1
    209e:	01 97       	sbiw	r24, 0x01	; 1
    20a0:	f1 f7       	brne	.-4      	; 0x209e <SPI_PSXC_config+0xa>
    20a2:	08 95       	ret

000020a4 <SPI_LCD_config>:
    20a4:	83 e5       	ldi	r24, 0x53	; 83
    20a6:	8c bd       	out	0x2c, r24	; 44
    20a8:	81 e0       	ldi	r24, 0x01	; 1
    20aa:	8d bd       	out	0x2d, r24	; 45
    20ac:	8d e0       	ldi	r24, 0x0D	; 13
    20ae:	8a 95       	dec	r24
    20b0:	f1 f7       	brne	.-4      	; 0x20ae <SPI_LCD_config+0xa>
    20b2:	08 95       	ret

000020b4 <SPI_FLASH_config>:
    20b4:	83 e5       	ldi	r24, 0x53	; 83
    20b6:	8c bd       	out	0x2c, r24	; 44
    20b8:	81 e0       	ldi	r24, 0x01	; 1
    20ba:	8d bd       	out	0x2d, r24	; 45
    20bc:	84 ef       	ldi	r24, 0xF4	; 244
    20be:	91 e0       	ldi	r25, 0x01	; 1
    20c0:	01 97       	sbiw	r24, 0x01	; 1
    20c2:	f1 f7       	brne	.-4      	; 0x20c0 <SPI_FLASH_config+0xc>
    20c4:	08 95       	ret

000020c6 <SPI_receive>:
    20c6:	1f 93       	push	r17
    20c8:	16 2f       	mov	r17, r22
    20ca:	0e 94 32 05 	call	0xa64	; 0xa64 <SPI_set_slave_addr>
    20ce:	82 e0       	ldi	r24, 0x02	; 2
    20d0:	0e 94 74 0a 	call	0x14e8	; 0x14e8 <SYS_isOpen>
    20d4:	88 23       	and	r24, r24
    20d6:	29 f0       	breq	.+10     	; 0x20e2 <SPI_receive+0x1c>
    20d8:	1e bd       	out	0x2e, r17	; 46
    20da:	0d b4       	in	r0, 0x2d	; 45
    20dc:	07 fe       	sbrs	r0, 7
    20de:	fd cf       	rjmp	.-6      	; 0x20da <SPI_receive+0x14>
    20e0:	8e b5       	in	r24, 0x2e	; 46
    20e2:	1f 91       	pop	r17
    20e4:	08 95       	ret

000020e6 <__SPKR_close_beep_mode>:
    20e6:	8a e0       	ldi	r24, 0x0A	; 10
    20e8:	0e 94 57 0a 	call	0x14ae	; 0x14ae <SYS_decrement_refcount>
    20ec:	88 23       	and	r24, r24
    20ee:	29 f4       	brne	.+10     	; 0x20fa <__SPKR_close_beep_mode+0x14>
    20f0:	81 e0       	ldi	r24, 0x01	; 1
    20f2:	0e 94 96 11 	call	0x232c	; 0x232c <__SPKR_close>
    20f6:	10 92 ca 01 	sts	0x01CA, r1	; 0x8001ca <beep_mode_active>
    20fa:	08 95       	ret

000020fc <__SPKR_close_tone_mode>:
    20fc:	89 e0       	ldi	r24, 0x09	; 9
    20fe:	0e 94 57 0a 	call	0x14ae	; 0x14ae <SYS_decrement_refcount>
    2102:	88 23       	and	r24, r24
    2104:	b9 f4       	brne	.+46     	; 0x2134 <__SPKR_close_tone_mode+0x38>
    2106:	80 91 c9 01 	lds	r24, 0x01C9	; 0x8001c9 <tone_mode_active>
    210a:	88 23       	and	r24, r24
    210c:	11 f0       	breq	.+4      	; 0x2112 <__SPKR_close_tone_mode+0x16>
    210e:	0e 94 dc 11 	call	0x23b8	; 0x23b8 <__SPKR_stop>
    2112:	82 e0       	ldi	r24, 0x02	; 2
    2114:	0e 94 96 11 	call	0x232c	; 0x232c <__SPKR_close>
    2118:	80 91 d7 01 	lds	r24, 0x01D7	; 0x8001d7 <p_Freq_LUT>
    211c:	90 91 d8 01 	lds	r25, 0x01D8	; 0x8001d8 <p_Freq_LUT+0x1>
    2120:	00 97       	sbiw	r24, 0x00	; 0
    2122:	31 f0       	breq	.+12     	; 0x2130 <__SPKR_close_tone_mode+0x34>
    2124:	0e 94 a5 24 	call	0x494a	; 0x494a <free>
    2128:	10 92 d8 01 	sts	0x01D8, r1	; 0x8001d8 <p_Freq_LUT+0x1>
    212c:	10 92 d7 01 	sts	0x01D7, r1	; 0x8001d7 <p_Freq_LUT>
    2130:	10 92 c9 01 	sts	0x01C9, r1	; 0x8001c9 <tone_mode_active>
    2134:	08 95       	ret

00002136 <SPKR_close>:
    2136:	81 30       	cpi	r24, 0x01	; 1
    2138:	29 f0       	breq	.+10     	; 0x2144 <SPKR_close+0xe>
    213a:	82 30       	cpi	r24, 0x02	; 2
    213c:	29 f4       	brne	.+10     	; 0x2148 <SPKR_close+0x12>
    213e:	0e 94 7e 10 	call	0x20fc	; 0x20fc <__SPKR_close_tone_mode>
    2142:	08 95       	ret
    2144:	0e 94 73 10 	call	0x20e6	; 0x20e6 <__SPKR_close_beep_mode>
    2148:	08 95       	ret

0000214a <__SPKR_set_up_freq_LUT>:
    214a:	0f 93       	push	r16
    214c:	1f 93       	push	r17
    214e:	cf 93       	push	r28
    2150:	df 93       	push	r29
    2152:	80 e2       	ldi	r24, 0x20	; 32
    2154:	91 e0       	ldi	r25, 0x01	; 1
    2156:	0e 94 10 24 	call	0x4820	; 0x4820 <malloc>
    215a:	9c 01       	movw	r18, r24
    215c:	90 93 d8 01 	sts	0x01D8, r25	; 0x8001d8 <p_Freq_LUT+0x1>
    2160:	80 93 d7 01 	sts	0x01D7, r24	; 0x8001d7 <p_Freq_LUT>
    2164:	89 2b       	or	r24, r25
    2166:	11 f4       	brne	.+4      	; 0x216c <__SPKR_set_up_freq_LUT+0x22>
    2168:	80 e0       	ldi	r24, 0x00	; 0
    216a:	39 c0       	rjmp	.+114    	; 0x21de <__SPKR_set_up_freq_LUT+0x94>
    216c:	89 01       	movw	r16, r18
    216e:	c0 e0       	ldi	r28, 0x00	; 0
    2170:	d0 e0       	ldi	r29, 0x00	; 0
    2172:	be 01       	movw	r22, r28
    2174:	80 e0       	ldi	r24, 0x00	; 0
    2176:	90 e0       	ldi	r25, 0x00	; 0
    2178:	0e 94 a7 20 	call	0x414e	; 0x414e <__floatunsisf>
    217c:	20 e0       	ldi	r18, 0x00	; 0
    217e:	30 e0       	ldi	r19, 0x00	; 0
    2180:	40 ea       	ldi	r20, 0xA0	; 160
    2182:	51 e4       	ldi	r21, 0x41	; 65
    2184:	0e 94 ff 1f 	call	0x3ffe	; 0x3ffe <__divsf3>
    2188:	27 ef       	ldi	r18, 0xF7	; 247
    218a:	35 e7       	ldi	r19, 0x75	; 117
    218c:	40 e0       	ldi	r20, 0x00	; 0
    218e:	5f e3       	ldi	r21, 0x3F	; 63
    2190:	0e 94 9b 21 	call	0x4336	; 0x4336 <__mulsf3>
    2194:	9b 01       	movw	r18, r22
    2196:	ac 01       	movw	r20, r24
    2198:	60 e0       	ldi	r22, 0x00	; 0
    219a:	70 e0       	ldi	r23, 0x00	; 0
    219c:	80 e2       	ldi	r24, 0x20	; 32
    219e:	91 e4       	ldi	r25, 0x41	; 65
    21a0:	0e 94 08 22 	call	0x4410	; 0x4410 <pow>
    21a4:	9b 01       	movw	r18, r22
    21a6:	ac 01       	movw	r20, r24
    21a8:	ca 01       	movw	r24, r20
    21aa:	b9 01       	movw	r22, r18
    21ac:	2d ec       	ldi	r18, 0xCD	; 205
    21ae:	3c ec       	ldi	r19, 0xCC	; 204
    21b0:	42 e8       	ldi	r20, 0x82	; 130
    21b2:	51 e4       	ldi	r21, 0x41	; 65
    21b4:	0e 94 9b 21 	call	0x4336	; 0x4336 <__mulsf3>
    21b8:	0e 94 5e 21 	call	0x42bc	; 0x42bc <lrint>
    21bc:	2a e0       	ldi	r18, 0x0A	; 10
    21be:	30 e0       	ldi	r19, 0x00	; 0
    21c0:	40 e0       	ldi	r20, 0x00	; 0
    21c2:	50 e0       	ldi	r21, 0x00	; 0
    21c4:	0e 94 8d 23 	call	0x471a	; 0x471a <__mulsi3>
    21c8:	f8 01       	movw	r30, r16
    21ca:	61 93       	st	Z+, r22
    21cc:	71 93       	st	Z+, r23
    21ce:	81 93       	st	Z+, r24
    21d0:	91 93       	st	Z+, r25
    21d2:	8f 01       	movw	r16, r30
    21d4:	21 96       	adiw	r28, 0x01	; 1
    21d6:	c8 34       	cpi	r28, 0x48	; 72
    21d8:	d1 05       	cpc	r29, r1
    21da:	59 f6       	brne	.-106    	; 0x2172 <__SPKR_set_up_freq_LUT+0x28>
    21dc:	81 e0       	ldi	r24, 0x01	; 1
    21de:	df 91       	pop	r29
    21e0:	cf 91       	pop	r28
    21e2:	1f 91       	pop	r17
    21e4:	0f 91       	pop	r16
    21e6:	08 95       	ret

000021e8 <__SPKR_open_beep_mode>:
    21e8:	8a e0       	ldi	r24, 0x0A	; 10
    21ea:	0e 94 67 0a 	call	0x14ce	; 0x14ce <SYS_increment_refcount>
    21ee:	88 23       	and	r24, r24
    21f0:	11 f0       	breq	.+4      	; 0x21f6 <__SPKR_open_beep_mode+0xe>
    21f2:	82 e0       	ldi	r24, 0x02	; 2
    21f4:	08 95       	ret
    21f6:	10 92 d4 01 	sts	0x01D4, r1	; 0x8001d4 <beep_accum16+0x1>
    21fa:	10 92 d3 01 	sts	0x01D3, r1	; 0x8001d3 <beep_accum16>
    21fe:	81 e0       	ldi	r24, 0x01	; 1
    2200:	0e 94 b2 11 	call	0x2364	; 0x2364 <__SPKR_init>
    2204:	81 e0       	ldi	r24, 0x01	; 1
    2206:	80 93 ca 01 	sts	0x01CA, r24	; 0x8001ca <beep_mode_active>
    220a:	08 95       	ret

0000220c <__SPKR_open_tone_mode>:
    220c:	1f 93       	push	r17
    220e:	89 e0       	ldi	r24, 0x09	; 9
    2210:	0e 94 67 0a 	call	0x14ce	; 0x14ce <SYS_increment_refcount>
    2214:	88 23       	and	r24, r24
    2216:	11 f0       	breq	.+4      	; 0x221c <__SPKR_open_tone_mode+0x10>
    2218:	82 e0       	ldi	r24, 0x02	; 2
    221a:	24 c0       	rjmp	.+72     	; 0x2264 <__SPKR_open_tone_mode+0x58>
    221c:	8b e0       	ldi	r24, 0x0B	; 11
    221e:	0e 94 74 0a 	call	0x14e8	; 0x14e8 <SYS_isOpen>
    2222:	88 23       	and	r24, r24
    2224:	d9 f4       	brne	.+54     	; 0x225c <__SPKR_open_tone_mode+0x50>
    2226:	0e 94 a5 10 	call	0x214a	; 0x214a <__SPKR_set_up_freq_LUT>
    222a:	18 2f       	mov	r17, r24
    222c:	81 30       	cpi	r24, 0x01	; 1
    222e:	11 f0       	breq	.+4      	; 0x2234 <__SPKR_open_tone_mode+0x28>
    2230:	86 e0       	ldi	r24, 0x06	; 6
    2232:	18 c0       	rjmp	.+48     	; 0x2264 <__SPKR_open_tone_mode+0x58>
    2234:	10 92 cb 01 	sts	0x01CB, r1	; 0x8001cb <spkr_accum32>
    2238:	10 92 cc 01 	sts	0x01CC, r1	; 0x8001cc <spkr_accum32+0x1>
    223c:	10 92 cd 01 	sts	0x01CD, r1	; 0x8001cd <spkr_accum32+0x2>
    2240:	10 92 ce 01 	sts	0x01CE, r1	; 0x8001ce <spkr_accum32+0x3>
    2244:	8d e0       	ldi	r24, 0x0D	; 13
    2246:	66 e6       	ldi	r22, 0x66	; 102
    2248:	73 e1       	ldi	r23, 0x13	; 19
    224a:	0e 94 f9 0e 	call	0x1df2	; 0x1df2 <ISR_attach>
    224e:	82 e0       	ldi	r24, 0x02	; 2
    2250:	0e 94 b2 11 	call	0x2364	; 0x2364 <__SPKR_init>
    2254:	10 93 c9 01 	sts	0x01C9, r17	; 0x8001c9 <tone_mode_active>
    2258:	81 e0       	ldi	r24, 0x01	; 1
    225a:	04 c0       	rjmp	.+8      	; 0x2264 <__SPKR_open_tone_mode+0x58>
    225c:	89 e0       	ldi	r24, 0x09	; 9
    225e:	0e 94 57 0a 	call	0x14ae	; 0x14ae <SYS_decrement_refcount>
    2262:	87 e0       	ldi	r24, 0x07	; 7
    2264:	1f 91       	pop	r17
    2266:	08 95       	ret

00002268 <SPKR_open>:
    2268:	81 30       	cpi	r24, 0x01	; 1
    226a:	21 f0       	breq	.+8      	; 0x2274 <SPKR_open+0xc>
    226c:	82 30       	cpi	r24, 0x02	; 2
    226e:	29 f0       	breq	.+10     	; 0x227a <SPKR_open+0x12>
    2270:	84 e0       	ldi	r24, 0x04	; 4
    2272:	08 95       	ret
    2274:	0e 94 f4 10 	call	0x21e8	; 0x21e8 <__SPKR_open_beep_mode>
    2278:	08 95       	ret
    227a:	0e 94 06 11 	call	0x220c	; 0x220c <__SPKR_open_tone_mode>
    227e:	08 95       	ret

00002280 <SPKR_play_beep>:
    2280:	6f 92       	push	r6
    2282:	7f 92       	push	r7
    2284:	8f 92       	push	r8
    2286:	9f 92       	push	r9
    2288:	af 92       	push	r10
    228a:	bf 92       	push	r11
    228c:	cf 92       	push	r12
    228e:	df 92       	push	r13
    2290:	ef 92       	push	r14
    2292:	ff 92       	push	r15
    2294:	0f 93       	push	r16
    2296:	1f 93       	push	r17
    2298:	cf 93       	push	r28
    229a:	df 93       	push	r29
    229c:	3b 01       	movw	r6, r22
    229e:	4c 01       	movw	r8, r24
    22a0:	5a 01       	movw	r10, r20
    22a2:	e9 01       	movw	r28, r18
    22a4:	8a e0       	ldi	r24, 0x0A	; 10
    22a6:	0e 94 74 0a 	call	0x14e8	; 0x14e8 <SYS_isOpen>
    22aa:	88 23       	and	r24, r24
    22ac:	81 f1       	breq	.+96     	; 0x230e <SPKR_play_beep+0x8e>
    22ae:	20 97       	sbiw	r28, 0x00	; 0
    22b0:	41 f1       	breq	.+80     	; 0x2302 <SPKR_play_beep+0x82>
    22b2:	95 01       	movw	r18, r10
    22b4:	44 27       	eor	r20, r20
    22b6:	37 fd       	sbrc	r19, 7
    22b8:	40 95       	com	r20
    22ba:	54 2f       	mov	r21, r20
    22bc:	be 01       	movw	r22, r28
    22be:	c5 36       	cpi	r28, 0x65	; 101
    22c0:	d1 05       	cpc	r29, r1
    22c2:	10 f0       	brcs	.+4      	; 0x22c8 <SPKR_play_beep+0x48>
    22c4:	64 e6       	ldi	r22, 0x64	; 100
    22c6:	70 e0       	ldi	r23, 0x00	; 0
    22c8:	80 e0       	ldi	r24, 0x00	; 0
    22ca:	90 e0       	ldi	r25, 0x00	; 0
    22cc:	0e 94 8d 23 	call	0x471a	; 0x471a <__mulsi3>
    22d0:	24 e6       	ldi	r18, 0x64	; 100
    22d2:	30 e0       	ldi	r19, 0x00	; 0
    22d4:	40 e0       	ldi	r20, 0x00	; 0
    22d6:	50 e0       	ldi	r21, 0x00	; 0
    22d8:	0e 94 9d 23 	call	0x473a	; 0x473a <__udivmodsi4>
    22dc:	79 01       	movw	r14, r18
    22de:	8a 01       	movw	r16, r20
    22e0:	c4 01       	movw	r24, r8
    22e2:	b3 01       	movw	r22, r6
    22e4:	0e 94 69 13 	call	0x26d2	; 0x26d2 <SPKR_beep>
    22e8:	c7 01       	movw	r24, r14
    22ea:	0e 94 4b 0b 	call	0x1696	; 0x1696 <TMRSRVC_delay>
    22ee:	60 e0       	ldi	r22, 0x00	; 0
    22f0:	70 e0       	ldi	r23, 0x00	; 0
    22f2:	80 e0       	ldi	r24, 0x00	; 0
    22f4:	90 e0       	ldi	r25, 0x00	; 0
    22f6:	0e 94 69 13 	call	0x26d2	; 0x26d2 <SPKR_beep>
    22fa:	c5 01       	movw	r24, r10
    22fc:	8e 19       	sub	r24, r14
    22fe:	9f 09       	sbc	r25, r15
    2300:	04 c0       	rjmp	.+8      	; 0x230a <SPKR_play_beep+0x8a>
    2302:	a1 14       	cp	r10, r1
    2304:	b1 04       	cpc	r11, r1
    2306:	19 f0       	breq	.+6      	; 0x230e <SPKR_play_beep+0x8e>
    2308:	c5 01       	movw	r24, r10
    230a:	0e 94 4b 0b 	call	0x1696	; 0x1696 <TMRSRVC_delay>
    230e:	df 91       	pop	r29
    2310:	cf 91       	pop	r28
    2312:	1f 91       	pop	r17
    2314:	0f 91       	pop	r16
    2316:	ff 90       	pop	r15
    2318:	ef 90       	pop	r14
    231a:	df 90       	pop	r13
    231c:	cf 90       	pop	r12
    231e:	bf 90       	pop	r11
    2320:	af 90       	pop	r10
    2322:	9f 90       	pop	r9
    2324:	8f 90       	pop	r8
    2326:	7f 90       	pop	r7
    2328:	6f 90       	pop	r6
    232a:	08 95       	ret

0000232c <__SPKR_close>:
    232c:	82 30       	cpi	r24, 0x02	; 2
    232e:	29 f4       	brne	.+10     	; 0x233a <__SPKR_close+0xe>
    2330:	80 91 81 00 	lds	r24, 0x0081	; 0x800081 <__TEXT_REGION_LENGTH__+0x7e0081>
    2334:	8e 7f       	andi	r24, 0xFE	; 254
    2336:	80 93 81 00 	sts	0x0081, r24	; 0x800081 <__TEXT_REGION_LENGTH__+0x7e0081>
    233a:	80 91 c9 01 	lds	r24, 0x01C9	; 0x8001c9 <tone_mode_active>
    233e:	81 30       	cpi	r24, 0x01	; 1
    2340:	31 f4       	brne	.+12     	; 0x234e <__SPKR_close+0x22>
    2342:	80 91 ca 01 	lds	r24, 0x01CA	; 0x8001ca <beep_mode_active>
    2346:	81 30       	cpi	r24, 0x01	; 1
    2348:	11 f4       	brne	.+4      	; 0x234e <__SPKR_close+0x22>
    234a:	00 00       	nop
    234c:	08 95       	ret
    234e:	80 91 c9 01 	lds	r24, 0x01C9	; 0x8001c9 <tone_mode_active>
    2352:	81 30       	cpi	r24, 0x01	; 1
    2354:	21 f0       	breq	.+8      	; 0x235e <__SPKR_close+0x32>
    2356:	80 91 ca 01 	lds	r24, 0x01CA	; 0x8001ca <beep_mode_active>
    235a:	81 30       	cpi	r24, 0x01	; 1
    235c:	11 f4       	brne	.+4      	; 0x2362 <__SPKR_close+0x36>
    235e:	5f 98       	cbi	0x0b, 7	; 11
    2360:	57 98       	cbi	0x0a, 7	; 10
    2362:	08 95       	ret

00002364 <__SPKR_init>:
    2364:	98 2f       	mov	r25, r24
    2366:	80 91 c9 01 	lds	r24, 0x01C9	; 0x8001c9 <tone_mode_active>
    236a:	88 23       	and	r24, r24
    236c:	31 f4       	brne	.+12     	; 0x237a <__SPKR_init+0x16>
    236e:	80 91 ca 01 	lds	r24, 0x01CA	; 0x8001ca <beep_mode_active>
    2372:	88 23       	and	r24, r24
    2374:	11 f4       	brne	.+4      	; 0x237a <__SPKR_init+0x16>
    2376:	57 9a       	sbi	0x0a, 7	; 10
    2378:	5f 98       	cbi	0x0b, 7	; 11
    237a:	80 91 c9 01 	lds	r24, 0x01C9	; 0x8001c9 <tone_mode_active>
    237e:	88 23       	and	r24, r24
    2380:	d1 f4       	brne	.+52     	; 0x23b6 <__SPKR_init+0x52>
    2382:	92 30       	cpi	r25, 0x02	; 2
    2384:	c1 f4       	brne	.+48     	; 0x23b6 <__SPKR_init+0x52>
    2386:	10 92 80 00 	sts	0x0080, r1	; 0x800080 <__TEXT_REGION_LENGTH__+0x7e0080>
    238a:	10 92 81 00 	sts	0x0081, r1	; 0x800081 <__TEXT_REGION_LENGTH__+0x7e0081>
    238e:	80 91 81 00 	lds	r24, 0x0081	; 0x800081 <__TEXT_REGION_LENGTH__+0x7e0081>
    2392:	88 60       	ori	r24, 0x08	; 8
    2394:	80 93 81 00 	sts	0x0081, r24	; 0x800081 <__TEXT_REGION_LENGTH__+0x7e0081>
    2398:	80 91 81 00 	lds	r24, 0x0081	; 0x800081 <__TEXT_REGION_LENGTH__+0x7e0081>
    239c:	81 60       	ori	r24, 0x01	; 1
    239e:	80 93 81 00 	sts	0x0081, r24	; 0x800081 <__TEXT_REGION_LENGTH__+0x7e0081>
    23a2:	10 92 85 00 	sts	0x0085, r1	; 0x800085 <__TEXT_REGION_LENGTH__+0x7e0085>
    23a6:	10 92 84 00 	sts	0x0084, r1	; 0x800084 <__TEXT_REGION_LENGTH__+0x7e0084>
    23aa:	81 e0       	ldi	r24, 0x01	; 1
    23ac:	80 93 89 00 	sts	0x0089, r24	; 0x800089 <__TEXT_REGION_LENGTH__+0x7e0089>
    23b0:	80 e9       	ldi	r24, 0x90	; 144
    23b2:	80 93 88 00 	sts	0x0088, r24	; 0x800088 <__TEXT_REGION_LENGTH__+0x7e0088>
    23b6:	08 95       	ret

000023b8 <__SPKR_stop>:
    23b8:	ef e6       	ldi	r30, 0x6F	; 111
    23ba:	f0 e0       	ldi	r31, 0x00	; 0
    23bc:	80 81       	ld	r24, Z
    23be:	8d 7f       	andi	r24, 0xFD	; 253
    23c0:	80 83       	st	Z, r24
    23c2:	08 95       	ret

000023c4 <STEPPER_go>:
    23c4:	98 2f       	mov	r25, r24
    23c6:	81 e0       	ldi	r24, 0x01	; 1
    23c8:	80 93 62 02 	sts	0x0262, r24	; 0x800262 <STEPPER_params+0x36>
    23cc:	91 30       	cpi	r25, 0x01	; 1
    23ce:	51 f0       	breq	.+20     	; 0x23e4 <STEPPER_go+0x20>
    23d0:	91 30       	cpi	r25, 0x01	; 1
    23d2:	18 f0       	brcs	.+6      	; 0x23da <STEPPER_go+0x16>
    23d4:	92 30       	cpi	r25, 0x02	; 2
    23d6:	41 f4       	brne	.+16     	; 0x23e8 <STEPPER_go+0x24>
    23d8:	03 c0       	rjmp	.+6      	; 0x23e0 <STEPPER_go+0x1c>
    23da:	10 92 4a 02 	sts	0x024A, r1	; 0x80024a <STEPPER_params+0x1e>
    23de:	04 c0       	rjmp	.+8      	; 0x23e8 <STEPPER_go+0x24>
    23e0:	10 92 4a 02 	sts	0x024A, r1	; 0x80024a <STEPPER_params+0x1e>
    23e4:	10 92 4b 02 	sts	0x024B, r1	; 0x80024b <STEPPER_params+0x1f>
    23e8:	10 92 62 02 	sts	0x0262, r1	; 0x800262 <STEPPER_params+0x36>
    23ec:	08 95       	ret

000023ee <STEPPER_set_steps>:
    23ee:	98 2f       	mov	r25, r24
    23f0:	81 e0       	ldi	r24, 0x01	; 1
    23f2:	80 93 62 02 	sts	0x0262, r24	; 0x800262 <STEPPER_params+0x36>
    23f6:	91 30       	cpi	r25, 0x01	; 1
    23f8:	71 f0       	breq	.+28     	; 0x2416 <STEPPER_set_steps+0x28>
    23fa:	91 30       	cpi	r25, 0x01	; 1
    23fc:	18 f0       	brcs	.+6      	; 0x2404 <STEPPER_set_steps+0x16>
    23fe:	92 30       	cpi	r25, 0x02	; 2
    2400:	71 f4       	brne	.+28     	; 0x241e <STEPPER_set_steps+0x30>
    2402:	05 c0       	rjmp	.+10     	; 0x240e <STEPPER_set_steps+0x20>
    2404:	70 93 3f 02 	sts	0x023F, r23	; 0x80023f <STEPPER_params+0x13>
    2408:	60 93 3e 02 	sts	0x023E, r22	; 0x80023e <STEPPER_params+0x12>
    240c:	08 c0       	rjmp	.+16     	; 0x241e <STEPPER_set_steps+0x30>
    240e:	70 93 3f 02 	sts	0x023F, r23	; 0x80023f <STEPPER_params+0x13>
    2412:	60 93 3e 02 	sts	0x023E, r22	; 0x80023e <STEPPER_params+0x12>
    2416:	70 93 41 02 	sts	0x0241, r23	; 0x800241 <STEPPER_params+0x15>
    241a:	60 93 40 02 	sts	0x0240, r22	; 0x800240 <STEPPER_params+0x14>
    241e:	10 92 62 02 	sts	0x0262, r1	; 0x800262 <STEPPER_params+0x36>
    2422:	08 95       	ret

00002424 <STEPPER_set_steps2>:
    2424:	21 e0       	ldi	r18, 0x01	; 1
    2426:	20 93 62 02 	sts	0x0262, r18	; 0x800262 <STEPPER_params+0x36>
    242a:	ee e3       	ldi	r30, 0x3E	; 62
    242c:	f2 e0       	ldi	r31, 0x02	; 2
    242e:	91 83       	std	Z+1, r25	; 0x01
    2430:	80 83       	st	Z, r24
    2432:	32 96       	adiw	r30, 0x02	; 2
    2434:	71 83       	std	Z+1, r23	; 0x01
    2436:	60 83       	st	Z, r22
    2438:	10 92 62 02 	sts	0x0262, r1	; 0x800262 <STEPPER_params+0x36>
    243c:	08 95       	ret

0000243e <STEPPER_set_stop_mode>:
    243e:	98 2f       	mov	r25, r24
    2440:	81 e0       	ldi	r24, 0x01	; 1
    2442:	80 93 62 02 	sts	0x0262, r24	; 0x800262 <STEPPER_params+0x36>
    2446:	91 30       	cpi	r25, 0x01	; 1
    2448:	51 f0       	breq	.+20     	; 0x245e <STEPPER_set_stop_mode+0x20>
    244a:	91 30       	cpi	r25, 0x01	; 1
    244c:	18 f0       	brcs	.+6      	; 0x2454 <STEPPER_set_stop_mode+0x16>
    244e:	92 30       	cpi	r25, 0x02	; 2
    2450:	41 f4       	brne	.+16     	; 0x2462 <STEPPER_set_stop_mode+0x24>
    2452:	03 c0       	rjmp	.+6      	; 0x245a <STEPPER_set_stop_mode+0x1c>
    2454:	60 93 4c 02 	sts	0x024C, r22	; 0x80024c <STEPPER_params+0x20>
    2458:	04 c0       	rjmp	.+8      	; 0x2462 <STEPPER_set_stop_mode+0x24>
    245a:	60 93 4c 02 	sts	0x024C, r22	; 0x80024c <STEPPER_params+0x20>
    245e:	60 93 4d 02 	sts	0x024D, r22	; 0x80024d <STEPPER_params+0x21>
    2462:	10 92 62 02 	sts	0x0262, r1	; 0x800262 <STEPPER_params+0x36>
    2466:	08 95       	ret

00002468 <STEPPER_setup_decels>:
    2468:	0f 93       	push	r16
    246a:	1f 93       	push	r17
    246c:	cf 93       	push	r28
    246e:	df 93       	push	r29
    2470:	eb 01       	movw	r28, r22
    2472:	8a 01       	movw	r16, r20
    2474:	81 30       	cpi	r24, 0x01	; 1
    2476:	01 f1       	breq	.+64     	; 0x24b8 <STEPPER_setup_decels+0x50>
    2478:	81 30       	cpi	r24, 0x01	; 1
    247a:	18 f0       	brcs	.+6      	; 0x2482 <STEPPER_setup_decels+0x1a>
    247c:	82 30       	cpi	r24, 0x02	; 2
    247e:	61 f5       	brne	.+88     	; 0x24d8 <STEPPER_setup_decels+0x70>
    2480:	0d c0       	rjmp	.+26     	; 0x249c <STEPPER_setup_decels+0x34>
    2482:	80 91 36 02 	lds	r24, 0x0236	; 0x800236 <STEPPER_params+0xa>
    2486:	90 91 37 02 	lds	r25, 0x0237	; 0x800237 <STEPPER_params+0xb>
    248a:	89 2b       	or	r24, r25
    248c:	11 f0       	breq	.+4      	; 0x2492 <STEPPER_setup_decels+0x2a>
    248e:	80 e0       	ldi	r24, 0x00	; 0
    2490:	1a c0       	rjmp	.+52     	; 0x24c6 <STEPPER_setup_decels+0x5e>
    2492:	10 92 43 02 	sts	0x0243, r1	; 0x800243 <STEPPER_params+0x17>
    2496:	10 92 42 02 	sts	0x0242, r1	; 0x800242 <STEPPER_params+0x16>
    249a:	1e c0       	rjmp	.+60     	; 0x24d8 <STEPPER_setup_decels+0x70>
    249c:	80 91 36 02 	lds	r24, 0x0236	; 0x800236 <STEPPER_params+0xa>
    24a0:	90 91 37 02 	lds	r25, 0x0237	; 0x800237 <STEPPER_params+0xb>
    24a4:	89 2b       	or	r24, r25
    24a6:	21 f0       	breq	.+8      	; 0x24b0 <STEPPER_setup_decels+0x48>
    24a8:	80 e0       	ldi	r24, 0x00	; 0
    24aa:	0e 94 ce 13 	call	0x279c	; 0x279c <STEPPER_set_decel_step_values>
    24ae:	04 c0       	rjmp	.+8      	; 0x24b8 <STEPPER_setup_decels+0x50>
    24b0:	10 92 43 02 	sts	0x0243, r1	; 0x800243 <STEPPER_params+0x17>
    24b4:	10 92 42 02 	sts	0x0242, r1	; 0x800242 <STEPPER_params+0x16>
    24b8:	80 91 38 02 	lds	r24, 0x0238	; 0x800238 <STEPPER_params+0xc>
    24bc:	90 91 39 02 	lds	r25, 0x0239	; 0x800239 <STEPPER_params+0xd>
    24c0:	89 2b       	or	r24, r25
    24c2:	31 f0       	breq	.+12     	; 0x24d0 <STEPPER_setup_decels+0x68>
    24c4:	81 e0       	ldi	r24, 0x01	; 1
    24c6:	be 01       	movw	r22, r28
    24c8:	a8 01       	movw	r20, r16
    24ca:	0e 94 ce 13 	call	0x279c	; 0x279c <STEPPER_set_decel_step_values>
    24ce:	04 c0       	rjmp	.+8      	; 0x24d8 <STEPPER_setup_decels+0x70>
    24d0:	10 92 45 02 	sts	0x0245, r1	; 0x800245 <STEPPER_params+0x19>
    24d4:	10 92 44 02 	sts	0x0244, r1	; 0x800244 <STEPPER_params+0x18>
    24d8:	df 91       	pop	r29
    24da:	cf 91       	pop	r28
    24dc:	1f 91       	pop	r17
    24de:	0f 91       	pop	r16
    24e0:	08 95       	ret

000024e2 <__TIMER1_COMPA_vect>:
    24e2:	0e 94 49 13 	call	0x2692	; 0x2692 <STOPWATCH_clk>
    24e6:	08 95       	ret

000024e8 <STOPWATCH_get_ticks>:
    24e8:	20 91 65 02 	lds	r18, 0x0265	; 0x800265 <STOPWATCH_params>
    24ec:	30 91 66 02 	lds	r19, 0x0266	; 0x800266 <STOPWATCH_params+0x1>
    24f0:	c9 01       	movw	r24, r18
    24f2:	08 95       	ret

000024f4 <STOPWATCH_reset>:
    24f4:	20 91 65 02 	lds	r18, 0x0265	; 0x800265 <STOPWATCH_params>
    24f8:	30 91 66 02 	lds	r19, 0x0266	; 0x800266 <STOPWATCH_params+0x1>
    24fc:	10 92 66 02 	sts	0x0266, r1	; 0x800266 <STOPWATCH_params+0x1>
    2500:	10 92 65 02 	sts	0x0265, r1	; 0x800265 <STOPWATCH_params>
    2504:	c9 01       	movw	r24, r18
    2506:	08 95       	ret

00002508 <STOPWATCH_start>:
    2508:	8b e0       	ldi	r24, 0x0B	; 11
    250a:	0e 94 74 0a 	call	0x14e8	; 0x14e8 <SYS_isOpen>
    250e:	88 23       	and	r24, r24
    2510:	11 f0       	breq	.+4      	; 0x2516 <STOPWATCH_start+0xe>
    2512:	0e 94 99 12 	call	0x2532	; 0x2532 <__STOPWATCH_start>
    2516:	08 95       	ret

00002518 <STOPWATCH_stop>:
    2518:	8b e0       	ldi	r24, 0x0B	; 11
    251a:	0e 94 74 0a 	call	0x14e8	; 0x14e8 <SYS_isOpen>
    251e:	88 23       	and	r24, r24
    2520:	11 f0       	breq	.+4      	; 0x2526 <STOPWATCH_stop+0xe>
    2522:	0e 94 9f 12 	call	0x253e	; 0x253e <__STOPWATCH_stop>
    2526:	20 91 65 02 	lds	r18, 0x0265	; 0x800265 <STOPWATCH_params>
    252a:	30 91 66 02 	lds	r19, 0x0266	; 0x800266 <STOPWATCH_params+0x1>
    252e:	c9 01       	movw	r24, r18
    2530:	08 95       	ret

00002532 <__STOPWATCH_start>:
    2532:	ef e6       	ldi	r30, 0x6F	; 111
    2534:	f0 e0       	ldi	r31, 0x00	; 0
    2536:	80 81       	ld	r24, Z
    2538:	82 60       	ori	r24, 0x02	; 2
    253a:	80 83       	st	Z, r24
    253c:	08 95       	ret

0000253e <__STOPWATCH_stop>:
    253e:	ef e6       	ldi	r30, 0x6F	; 111
    2540:	f0 e0       	ldi	r31, 0x00	; 0
    2542:	80 81       	ld	r24, Z
    2544:	8d 7f       	andi	r24, 0xFD	; 253
    2546:	80 83       	st	Z, r24
    2548:	08 95       	ret

0000254a <SYS_init>:
    254a:	cf 93       	push	r28
    254c:	df 93       	push	r29
    254e:	c0 e0       	ldi	r28, 0x00	; 0
    2550:	d0 e0       	ldi	r29, 0x00	; 0
    2552:	8c 2f       	mov	r24, r28
    2554:	60 e0       	ldi	r22, 0x00	; 0
    2556:	0e 94 b4 12 	call	0x2568	; 0x2568 <SYS_set_refcount>
    255a:	21 96       	adiw	r28, 0x01	; 1
    255c:	c5 31       	cpi	r28, 0x15	; 21
    255e:	d1 05       	cpc	r29, r1
    2560:	c1 f7       	brne	.-16     	; 0x2552 <SYS_init+0x8>
    2562:	df 91       	pop	r29
    2564:	cf 91       	pop	r28
    2566:	08 95       	ret

00002568 <SYS_set_refcount>:
    2568:	85 31       	cpi	r24, 0x15	; 21
    256a:	28 f4       	brcc	.+10     	; 0x2576 <SYS_set_refcount+0xe>
    256c:	e8 2f       	mov	r30, r24
    256e:	f0 e0       	ldi	r31, 0x00	; 0
    2570:	ef 5e       	subi	r30, 0xEF	; 239
    2572:	fd 4f       	sbci	r31, 0xFD	; 253
    2574:	60 83       	st	Z, r22
    2576:	08 95       	ret

00002578 <ATTINY_get_firm_rev>:
    2578:	1f 93       	push	r17
    257a:	cf 93       	push	r28
    257c:	df 93       	push	r29
    257e:	ec 01       	movw	r28, r24
    2580:	00 97       	sbiw	r24, 0x00	; 0
    2582:	99 f1       	breq	.+102    	; 0x25ea <ATTINY_get_firm_rev+0x72>
    2584:	81 e0       	ldi	r24, 0x01	; 1
    2586:	0e 94 74 0a 	call	0x14e8	; 0x14e8 <SYS_isOpen>
    258a:	88 23       	and	r24, r24
    258c:	51 f1       	breq	.+84     	; 0x25e2 <ATTINY_get_firm_rev+0x6a>
    258e:	87 e0       	ldi	r24, 0x07	; 7
    2590:	0e 94 32 05 	call	0xa64	; 0xa64 <SPI_set_slave_addr>
    2594:	18 ec       	ldi	r17, 0xC8	; 200
    2596:	81 2f       	mov	r24, r17
    2598:	8a 95       	dec	r24
    259a:	f1 f7       	brne	.-4      	; 0x2598 <ATTINY_get_firm_rev+0x20>
    259c:	82 e0       	ldi	r24, 0x02	; 2
    259e:	6a e0       	ldi	r22, 0x0A	; 10
    25a0:	0e 94 83 05 	call	0xb06	; 0xb06 <SPI_transmit>
    25a4:	82 e0       	ldi	r24, 0x02	; 2
    25a6:	64 eb       	ldi	r22, 0xB4	; 180
    25a8:	0e 94 83 05 	call	0xb06	; 0xb06 <SPI_transmit>
    25ac:	81 2f       	mov	r24, r17
    25ae:	8a 95       	dec	r24
    25b0:	f1 f7       	brne	.-4      	; 0x25ae <ATTINY_get_firm_rev+0x36>
    25b2:	82 e0       	ldi	r24, 0x02	; 2
    25b4:	60 e0       	ldi	r22, 0x00	; 0
    25b6:	0e 94 63 10 	call	0x20c6	; 0x20c6 <SPI_receive>
    25ba:	88 83       	st	Y, r24
    25bc:	81 2f       	mov	r24, r17
    25be:	8a 95       	dec	r24
    25c0:	f1 f7       	brne	.-4      	; 0x25be <ATTINY_get_firm_rev+0x46>
    25c2:	82 e0       	ldi	r24, 0x02	; 2
    25c4:	60 e0       	ldi	r22, 0x00	; 0
    25c6:	0e 94 63 10 	call	0x20c6	; 0x20c6 <SPI_receive>
    25ca:	89 83       	std	Y+1, r24	; 0x01
    25cc:	1a 95       	dec	r17
    25ce:	f1 f7       	brne	.-4      	; 0x25cc <ATTINY_get_firm_rev+0x54>
    25d0:	82 e0       	ldi	r24, 0x02	; 2
    25d2:	60 e0       	ldi	r22, 0x00	; 0
    25d4:	0e 94 63 10 	call	0x20c6	; 0x20c6 <SPI_receive>
    25d8:	8a 83       	std	Y+2, r24	; 0x02
    25da:	87 e0       	ldi	r24, 0x07	; 7
    25dc:	0e 94 32 05 	call	0xa64	; 0xa64 <SPI_set_slave_addr>
    25e0:	04 c0       	rjmp	.+8      	; 0x25ea <ATTINY_get_firm_rev+0x72>
    25e2:	18 82       	st	Y, r1
    25e4:	19 82       	std	Y+1, r1	; 0x01
    25e6:	8d e2       	ldi	r24, 0x2D	; 45
    25e8:	8a 83       	std	Y+2, r24	; 0x02
    25ea:	df 91       	pop	r29
    25ec:	cf 91       	pop	r28
    25ee:	1f 91       	pop	r17
    25f0:	08 95       	ret

000025f2 <ATTINY_power_cycle_IR>:
    25f2:	1f 93       	push	r17
    25f4:	18 2f       	mov	r17, r24
    25f6:	81 e0       	ldi	r24, 0x01	; 1
    25f8:	0e 94 74 0a 	call	0x14e8	; 0x14e8 <SYS_isOpen>
    25fc:	88 23       	and	r24, r24
    25fe:	c1 f0       	breq	.+48     	; 0x2630 <ATTINY_power_cycle_IR+0x3e>
    2600:	87 e0       	ldi	r24, 0x07	; 7
    2602:	0e 94 32 05 	call	0xa64	; 0xa64 <SPI_set_slave_addr>
    2606:	88 ec       	ldi	r24, 0xC8	; 200
    2608:	8a 95       	dec	r24
    260a:	f1 f7       	brne	.-4      	; 0x2608 <ATTINY_power_cycle_IR+0x16>
    260c:	82 e0       	ldi	r24, 0x02	; 2
    260e:	6a e0       	ldi	r22, 0x0A	; 10
    2610:	0e 94 83 05 	call	0xb06	; 0xb06 <SPI_transmit>
    2614:	82 e0       	ldi	r24, 0x02	; 2
    2616:	65 eb       	ldi	r22, 0xB5	; 181
    2618:	0e 94 83 05 	call	0xb06	; 0xb06 <SPI_transmit>
    261c:	82 e0       	ldi	r24, 0x02	; 2
    261e:	61 2f       	mov	r22, r17
    2620:	0e 94 83 05 	call	0xb06	; 0xb06 <SPI_transmit>
    2624:	89 ee       	ldi	r24, 0xE9	; 233
    2626:	8a 95       	dec	r24
    2628:	f1 f7       	brne	.-4      	; 0x2626 <ATTINY_power_cycle_IR+0x34>
    262a:	87 e0       	ldi	r24, 0x07	; 7
    262c:	0e 94 32 05 	call	0xa64	; 0xa64 <SPI_set_slave_addr>
    2630:	1f 91       	pop	r17
    2632:	08 95       	ret

00002634 <TMRSRVC_open>:
    2634:	88 e0       	ldi	r24, 0x08	; 8
    2636:	0e 94 67 0a 	call	0x14ce	; 0x14ce <SYS_increment_refcount>
    263a:	88 23       	and	r24, r24
    263c:	11 f0       	breq	.+4      	; 0x2642 <TMRSRVC_open+0xe>
    263e:	82 e0       	ldi	r24, 0x02	; 2
    2640:	08 95       	ret
    2642:	10 92 85 02 	sts	0x0285, r1	; 0x800285 <tmrNodes>
    2646:	10 92 87 02 	sts	0x0287, r1	; 0x800287 <tmrNodes+0x2>
    264a:	10 92 86 02 	sts	0x0286, r1	; 0x800286 <tmrNodes+0x1>
    264e:	10 92 d9 01 	sts	0x01D9, r1	; 0x8001d9 <timer_busy_status>
    2652:	10 92 da 01 	sts	0x01DA, r1	; 0x8001da <timer_run_status>
    2656:	80 e1       	ldi	r24, 0x10	; 16
    2658:	6b e3       	ldi	r22, 0x3B	; 59
    265a:	74 e1       	ldi	r23, 0x14	; 20
    265c:	0e 94 55 13 	call	0x26aa	; 0x26aa <__ISR_attach>
    2660:	0e 94 3a 13 	call	0x2674	; 0x2674 <__TMRSRVC_init>
    2664:	0e 94 43 13 	call	0x2686	; 0x2686 <__TMRSRVC_start>
    2668:	81 e0       	ldi	r24, 0x01	; 1
    266a:	08 95       	ret

0000266c <TMRSRVC_start>:
    266c:	81 e0       	ldi	r24, 0x01	; 1
    266e:	80 93 da 01 	sts	0x01DA, r24	; 0x8001da <timer_run_status>
    2672:	08 95       	ret

00002674 <__TMRSRVC_init>:
    2674:	84 b5       	in	r24, 0x24	; 36
    2676:	82 60       	ori	r24, 0x02	; 2
    2678:	84 bd       	out	0x24, r24	; 36
    267a:	85 b5       	in	r24, 0x25	; 37
    267c:	84 60       	ori	r24, 0x04	; 4
    267e:	85 bd       	out	0x25, r24	; 37
    2680:	8e e4       	ldi	r24, 0x4E	; 78
    2682:	87 bd       	out	0x27, r24	; 39
    2684:	08 95       	ret

00002686 <__TMRSRVC_start>:
    2686:	ee e6       	ldi	r30, 0x6E	; 110
    2688:	f0 e0       	ldi	r31, 0x00	; 0
    268a:	80 81       	ld	r24, Z
    268c:	82 60       	ori	r24, 0x02	; 2
    268e:	80 83       	st	Z, r24
    2690:	08 95       	ret

00002692 <STOPWATCH_clk>:
    2692:	cf 93       	push	r28
    2694:	df 93       	push	r29
    2696:	c5 e6       	ldi	r28, 0x65	; 101
    2698:	d2 e0       	ldi	r29, 0x02	; 2
    269a:	88 81       	ld	r24, Y
    269c:	99 81       	ldd	r25, Y+1	; 0x01
    269e:	01 96       	adiw	r24, 0x01	; 1
    26a0:	88 83       	st	Y, r24
    26a2:	99 83       	std	Y+1, r25	; 0x01
    26a4:	df 91       	pop	r29
    26a6:	cf 91       	pop	r28
    26a8:	08 95       	ret

000026aa <__ISR_attach>:
    26aa:	80 32       	cpi	r24, 0x20	; 32
    26ac:	18 f0       	brcs	.+6      	; 0x26b4 <__ISR_attach+0xa>
    26ae:	20 e0       	ldi	r18, 0x00	; 0
    26b0:	30 e0       	ldi	r19, 0x00	; 0
    26b2:	0a c0       	rjmp	.+20     	; 0x26c8 <__ISR_attach+0x1e>
    26b4:	e8 2f       	mov	r30, r24
    26b6:	f0 e0       	ldi	r31, 0x00	; 0
    26b8:	ee 0f       	add	r30, r30
    26ba:	ff 1f       	adc	r31, r31
    26bc:	e7 58       	subi	r30, 0x87	; 135
    26be:	fe 4f       	sbci	r31, 0xFE	; 254
    26c0:	20 81       	ld	r18, Z
    26c2:	31 81       	ldd	r19, Z+1	; 0x01
    26c4:	71 83       	std	Z+1, r23	; 0x01
    26c6:	60 83       	st	Z, r22
    26c8:	c9 01       	movw	r24, r18
    26ca:	08 95       	ret

000026cc <__SPKR_TIMER1_COMPA_vect>:
    26cc:	0e 94 8d 13 	call	0x271a	; 0x271a <SPKR_clk>
    26d0:	08 95       	ret

000026d2 <SPKR_beep>:
    26d2:	ef 92       	push	r14
    26d4:	ff 92       	push	r15
    26d6:	0f 93       	push	r16
    26d8:	1f 93       	push	r17
    26da:	7b 01       	movw	r14, r22
    26dc:	8c 01       	movw	r16, r24
    26de:	8a e0       	ldi	r24, 0x0A	; 10
    26e0:	0e 94 74 0a 	call	0x14e8	; 0x14e8 <SYS_isOpen>
    26e4:	88 23       	and	r24, r24
    26e6:	a1 f0       	breq	.+40     	; 0x2710 <SPKR_beep+0x3e>
    26e8:	80 91 ca 01 	lds	r24, 0x01CA	; 0x8001ca <beep_mode_active>
    26ec:	88 23       	and	r24, r24
    26ee:	81 f0       	breq	.+32     	; 0x2710 <SPKR_beep+0x3e>
    26f0:	d8 01       	movw	r26, r16
    26f2:	c7 01       	movw	r24, r14
    26f4:	88 0f       	add	r24, r24
    26f6:	99 1f       	adc	r25, r25
    26f8:	aa 1f       	adc	r26, r26
    26fa:	bb 1f       	adc	r27, r27
    26fc:	90 93 d6 01 	sts	0x01D6, r25	; 0x8001d6 <beep_freq+0x1>
    2700:	80 93 d5 01 	sts	0x01D5, r24	; 0x8001d5 <beep_freq>
    2704:	e1 14       	cp	r14, r1
    2706:	f1 04       	cpc	r15, r1
    2708:	01 05       	cpc	r16, r1
    270a:	11 05       	cpc	r17, r1
    270c:	09 f4       	brne	.+2      	; 0x2710 <SPKR_beep+0x3e>
    270e:	5f 98       	cbi	0x0b, 7	; 11
    2710:	1f 91       	pop	r17
    2712:	0f 91       	pop	r16
    2714:	ff 90       	pop	r15
    2716:	ef 90       	pop	r14
    2718:	08 95       	ret

0000271a <SPKR_clk>:
    271a:	80 91 cb 01 	lds	r24, 0x01CB	; 0x8001cb <spkr_accum32>
    271e:	90 91 cc 01 	lds	r25, 0x01CC	; 0x8001cc <spkr_accum32+0x1>
    2722:	a0 91 cd 01 	lds	r26, 0x01CD	; 0x8001cd <spkr_accum32+0x2>
    2726:	b0 91 ce 01 	lds	r27, 0x01CE	; 0x8001ce <spkr_accum32+0x3>
    272a:	20 91 cf 01 	lds	r18, 0x01CF	; 0x8001cf <spkr_freq>
    272e:	30 91 d0 01 	lds	r19, 0x01D0	; 0x8001d0 <spkr_freq+0x1>
    2732:	40 91 d1 01 	lds	r20, 0x01D1	; 0x8001d1 <spkr_freq+0x2>
    2736:	50 91 d2 01 	lds	r21, 0x01D2	; 0x8001d2 <spkr_freq+0x3>
    273a:	28 0f       	add	r18, r24
    273c:	39 1f       	adc	r19, r25
    273e:	4a 1f       	adc	r20, r26
    2740:	5b 1f       	adc	r21, r27
    2742:	20 93 cb 01 	sts	0x01CB, r18	; 0x8001cb <spkr_accum32>
    2746:	30 93 cc 01 	sts	0x01CC, r19	; 0x8001cc <spkr_accum32+0x1>
    274a:	40 93 cd 01 	sts	0x01CD, r20	; 0x8001cd <spkr_accum32+0x2>
    274e:	50 93 ce 01 	sts	0x01CE, r21	; 0x8001ce <spkr_accum32+0x3>
    2752:	80 91 cb 01 	lds	r24, 0x01CB	; 0x8001cb <spkr_accum32>
    2756:	90 91 cc 01 	lds	r25, 0x01CC	; 0x8001cc <spkr_accum32+0x1>
    275a:	a0 91 cd 01 	lds	r26, 0x01CD	; 0x8001cd <spkr_accum32+0x2>
    275e:	b0 91 ce 01 	lds	r27, 0x01CE	; 0x8001ce <spkr_accum32+0x3>
    2762:	88 51       	subi	r24, 0x18	; 24
    2764:	96 4f       	sbci	r25, 0xF6	; 246
    2766:	a0 40       	sbci	r26, 0x00	; 0
    2768:	b0 40       	sbci	r27, 0x00	; 0
    276a:	bc f0       	brlt	.+46     	; 0x279a <SPKR_clk+0x80>
    276c:	8b b1       	in	r24, 0x0b	; 11
    276e:	80 58       	subi	r24, 0x80	; 128
    2770:	8b b9       	out	0x0b, r24	; 11
    2772:	80 91 cb 01 	lds	r24, 0x01CB	; 0x8001cb <spkr_accum32>
    2776:	90 91 cc 01 	lds	r25, 0x01CC	; 0x8001cc <spkr_accum32+0x1>
    277a:	a0 91 cd 01 	lds	r26, 0x01CD	; 0x8001cd <spkr_accum32+0x2>
    277e:	b0 91 ce 01 	lds	r27, 0x01CE	; 0x8001ce <spkr_accum32+0x3>
    2782:	88 51       	subi	r24, 0x18	; 24
    2784:	96 4f       	sbci	r25, 0xF6	; 246
    2786:	a0 40       	sbci	r26, 0x00	; 0
    2788:	b0 40       	sbci	r27, 0x00	; 0
    278a:	80 93 cb 01 	sts	0x01CB, r24	; 0x8001cb <spkr_accum32>
    278e:	90 93 cc 01 	sts	0x01CC, r25	; 0x8001cc <spkr_accum32+0x1>
    2792:	a0 93 cd 01 	sts	0x01CD, r26	; 0x8001cd <spkr_accum32+0x2>
    2796:	b0 93 ce 01 	sts	0x01CE, r27	; 0x8001ce <spkr_accum32+0x3>
    279a:	08 95       	ret

0000279c <STEPPER_set_decel_step_values>:
    279c:	ef 92       	push	r14
    279e:	ff 92       	push	r15
    27a0:	0f 93       	push	r16
    27a2:	1f 93       	push	r17
    27a4:	cf 93       	push	r28
    27a6:	df 93       	push	r29
    27a8:	eb 01       	movw	r28, r22
    27aa:	88 23       	and	r24, r24
    27ac:	21 f0       	breq	.+8      	; 0x27b6 <STEPPER_set_decel_step_values+0x1a>
    27ae:	81 30       	cpi	r24, 0x01	; 1
    27b0:	09 f0       	breq	.+2      	; 0x27b4 <STEPPER_set_decel_step_values+0x18>
    27b2:	5a c0       	rjmp	.+180    	; 0x2868 <STEPPER_set_decel_step_values+0xcc>
    27b4:	2d c0       	rjmp	.+90     	; 0x2810 <STEPPER_set_decel_step_values+0x74>
    27b6:	9a 01       	movw	r18, r20
    27b8:	40 e0       	ldi	r20, 0x00	; 0
    27ba:	50 e0       	ldi	r21, 0x00	; 0
    27bc:	ca 01       	movw	r24, r20
    27be:	b9 01       	movw	r22, r18
    27c0:	0e 94 8d 23 	call	0x471a	; 0x471a <__mulsi3>
    27c4:	20 91 36 02 	lds	r18, 0x0236	; 0x800236 <STEPPER_params+0xa>
    27c8:	30 91 37 02 	lds	r19, 0x0237	; 0x800237 <STEPPER_params+0xb>
    27cc:	22 0f       	add	r18, r18
    27ce:	33 1f       	adc	r19, r19
    27d0:	40 e0       	ldi	r20, 0x00	; 0
    27d2:	50 e0       	ldi	r21, 0x00	; 0
    27d4:	0e 94 9d 23 	call	0x473a	; 0x473a <__udivmodsi4>
    27d8:	79 01       	movw	r14, r18
    27da:	8a 01       	movw	r16, r20
    27dc:	a8 01       	movw	r20, r16
    27de:	97 01       	movw	r18, r14
    27e0:	22 0f       	add	r18, r18
    27e2:	33 1f       	adc	r19, r19
    27e4:	44 1f       	adc	r20, r20
    27e6:	55 1f       	adc	r21, r21
    27e8:	ce 01       	movw	r24, r28
    27ea:	a0 e0       	ldi	r26, 0x00	; 0
    27ec:	b0 e0       	ldi	r27, 0x00	; 0
    27ee:	82 17       	cp	r24, r18
    27f0:	93 07       	cpc	r25, r19
    27f2:	a4 07       	cpc	r26, r20
    27f4:	b5 07       	cpc	r27, r21
    27f6:	28 f0       	brcs	.+10     	; 0x2802 <STEPPER_set_decel_step_values+0x66>
    27f8:	f0 92 43 02 	sts	0x0243, r15	; 0x800243 <STEPPER_params+0x17>
    27fc:	e0 92 42 02 	sts	0x0242, r14	; 0x800242 <STEPPER_params+0x16>
    2800:	33 c0       	rjmp	.+102    	; 0x2868 <STEPPER_set_decel_step_values+0xcc>
    2802:	d6 95       	lsr	r29
    2804:	c7 95       	ror	r28
    2806:	d0 93 43 02 	sts	0x0243, r29	; 0x800243 <STEPPER_params+0x17>
    280a:	c0 93 42 02 	sts	0x0242, r28	; 0x800242 <STEPPER_params+0x16>
    280e:	2c c0       	rjmp	.+88     	; 0x2868 <STEPPER_set_decel_step_values+0xcc>
    2810:	9a 01       	movw	r18, r20
    2812:	40 e0       	ldi	r20, 0x00	; 0
    2814:	50 e0       	ldi	r21, 0x00	; 0
    2816:	ca 01       	movw	r24, r20
    2818:	b9 01       	movw	r22, r18
    281a:	0e 94 8d 23 	call	0x471a	; 0x471a <__mulsi3>
    281e:	20 91 38 02 	lds	r18, 0x0238	; 0x800238 <STEPPER_params+0xc>
    2822:	30 91 39 02 	lds	r19, 0x0239	; 0x800239 <STEPPER_params+0xd>
    2826:	22 0f       	add	r18, r18
    2828:	33 1f       	adc	r19, r19
    282a:	40 e0       	ldi	r20, 0x00	; 0
    282c:	50 e0       	ldi	r21, 0x00	; 0
    282e:	0e 94 9d 23 	call	0x473a	; 0x473a <__udivmodsi4>
    2832:	79 01       	movw	r14, r18
    2834:	8a 01       	movw	r16, r20
    2836:	a8 01       	movw	r20, r16
    2838:	97 01       	movw	r18, r14
    283a:	22 0f       	add	r18, r18
    283c:	33 1f       	adc	r19, r19
    283e:	44 1f       	adc	r20, r20
    2840:	55 1f       	adc	r21, r21
    2842:	ce 01       	movw	r24, r28
    2844:	a0 e0       	ldi	r26, 0x00	; 0
    2846:	b0 e0       	ldi	r27, 0x00	; 0
    2848:	82 17       	cp	r24, r18
    284a:	93 07       	cpc	r25, r19
    284c:	a4 07       	cpc	r26, r20
    284e:	b5 07       	cpc	r27, r21
    2850:	28 f0       	brcs	.+10     	; 0x285c <STEPPER_set_decel_step_values+0xc0>
    2852:	f0 92 45 02 	sts	0x0245, r15	; 0x800245 <STEPPER_params+0x19>
    2856:	e0 92 44 02 	sts	0x0244, r14	; 0x800244 <STEPPER_params+0x18>
    285a:	06 c0       	rjmp	.+12     	; 0x2868 <STEPPER_set_decel_step_values+0xcc>
    285c:	d6 95       	lsr	r29
    285e:	c7 95       	ror	r28
    2860:	d0 93 45 02 	sts	0x0245, r29	; 0x800245 <STEPPER_params+0x19>
    2864:	c0 93 44 02 	sts	0x0244, r28	; 0x800244 <STEPPER_params+0x18>
    2868:	df 91       	pop	r29
    286a:	cf 91       	pop	r28
    286c:	1f 91       	pop	r17
    286e:	0f 91       	pop	r16
    2870:	ff 90       	pop	r15
    2872:	ef 90       	pop	r14
    2874:	08 95       	ret

00002876 <__TIMER0_COMPA_vect>:
    2876:	0e 94 42 14 	call	0x2884	; 0x2884 <TMRSRVC_tick>
    287a:	0e 94 82 14 	call	0x2904	; 0x2904 <STEPPER_clk>
    287e:	0e 94 5b 14 	call	0x28b6	; 0x28b6 <SPKR_beep_clk>
    2882:	08 95       	ret

00002884 <TMRSRVC_tick>:
    2884:	88 e0       	ldi	r24, 0x08	; 8
    2886:	0e 94 74 0a 	call	0x14e8	; 0x14e8 <SYS_isOpen>
    288a:	88 23       	and	r24, r24
    288c:	11 f4       	brne	.+4      	; 0x2892 <TMRSRVC_tick+0xe>
    288e:	84 e0       	ldi	r24, 0x04	; 4
    2890:	08 95       	ret
    2892:	80 91 da 01 	lds	r24, 0x01DA	; 0x8001da <timer_run_status>
    2896:	88 23       	and	r24, r24
    2898:	11 f4       	brne	.+4      	; 0x289e <TMRSRVC_tick+0x1a>
    289a:	83 e0       	ldi	r24, 0x03	; 3
    289c:	08 95       	ret
    289e:	80 91 d9 01 	lds	r24, 0x01D9	; 0x8001d9 <timer_busy_status>
    28a2:	88 23       	and	r24, r24
    28a4:	11 f0       	breq	.+4      	; 0x28aa <TMRSRVC_tick+0x26>
    28a6:	82 e0       	ldi	r24, 0x02	; 2
    28a8:	08 95       	ret
    28aa:	0e 94 cf 16 	call	0x2d9e	; 0x2d9e <TMRSRVC_process>
    28ae:	81 30       	cpi	r24, 0x01	; 1
    28b0:	e1 f3       	breq	.-8      	; 0x28aa <TMRSRVC_tick+0x26>
    28b2:	80 e0       	ldi	r24, 0x00	; 0
    28b4:	08 95       	ret

000028b6 <SPKR_beep_clk>:
    28b6:	80 91 ca 01 	lds	r24, 0x01CA	; 0x8001ca <beep_mode_active>
    28ba:	81 30       	cpi	r24, 0x01	; 1
    28bc:	11 f5       	brne	.+68     	; 0x2902 <SPKR_beep_clk+0x4c>
    28be:	80 91 d3 01 	lds	r24, 0x01D3	; 0x8001d3 <beep_accum16>
    28c2:	90 91 d4 01 	lds	r25, 0x01D4	; 0x8001d4 <beep_accum16+0x1>
    28c6:	20 91 d5 01 	lds	r18, 0x01D5	; 0x8001d5 <beep_freq>
    28ca:	30 91 d6 01 	lds	r19, 0x01D6	; 0x8001d6 <beep_freq+0x1>
    28ce:	28 0f       	add	r18, r24
    28d0:	39 1f       	adc	r19, r25
    28d2:	30 93 d4 01 	sts	0x01D4, r19	; 0x8001d4 <beep_accum16+0x1>
    28d6:	20 93 d3 01 	sts	0x01D3, r18	; 0x8001d3 <beep_accum16>
    28da:	80 91 d3 01 	lds	r24, 0x01D3	; 0x8001d3 <beep_accum16>
    28de:	90 91 d4 01 	lds	r25, 0x01D4	; 0x8001d4 <beep_accum16+0x1>
    28e2:	88 5e       	subi	r24, 0xE8	; 232
    28e4:	93 40       	sbci	r25, 0x03	; 3
    28e6:	6c f0       	brlt	.+26     	; 0x2902 <SPKR_beep_clk+0x4c>
    28e8:	8b b1       	in	r24, 0x0b	; 11
    28ea:	80 58       	subi	r24, 0x80	; 128
    28ec:	8b b9       	out	0x0b, r24	; 11
    28ee:	80 91 d3 01 	lds	r24, 0x01D3	; 0x8001d3 <beep_accum16>
    28f2:	90 91 d4 01 	lds	r25, 0x01D4	; 0x8001d4 <beep_accum16+0x1>
    28f6:	88 5e       	subi	r24, 0xE8	; 232
    28f8:	93 40       	sbci	r25, 0x03	; 3
    28fa:	90 93 d4 01 	sts	0x01D4, r25	; 0x8001d4 <beep_accum16+0x1>
    28fe:	80 93 d3 01 	sts	0x01D3, r24	; 0x8001d3 <beep_accum16>
    2902:	08 95       	ret

00002904 <STEPPER_clk>:
    2904:	87 e0       	ldi	r24, 0x07	; 7
    2906:	0e 94 74 0a 	call	0x14e8	; 0x14e8 <SYS_isOpen>
    290a:	88 23       	and	r24, r24
    290c:	09 f4       	brne	.+2      	; 0x2910 <STEPPER_clk+0xc>
    290e:	aa c0       	rjmp	.+340    	; 0x2a64 <STEPPER_clk+0x160>
    2910:	80 91 36 02 	lds	r24, 0x0236	; 0x800236 <STEPPER_params+0xa>
    2914:	90 91 37 02 	lds	r25, 0x0237	; 0x800237 <STEPPER_params+0xb>
    2918:	89 2b       	or	r24, r25
    291a:	09 f1       	breq	.+66     	; 0x295e <STEPPER_clk+0x5a>
    291c:	80 91 5a 02 	lds	r24, 0x025A	; 0x80025a <STEPPER_params+0x2e>
    2920:	90 91 5b 02 	lds	r25, 0x025B	; 0x80025b <STEPPER_params+0x2f>
    2924:	20 91 36 02 	lds	r18, 0x0236	; 0x800236 <STEPPER_params+0xa>
    2928:	30 91 37 02 	lds	r19, 0x0237	; 0x800237 <STEPPER_params+0xb>
    292c:	82 0f       	add	r24, r18
    292e:	93 1f       	adc	r25, r19
    2930:	90 93 5b 02 	sts	0x025B, r25	; 0x80025b <STEPPER_params+0x2f>
    2934:	80 93 5a 02 	sts	0x025A, r24	; 0x80025a <STEPPER_params+0x2e>
    2938:	80 91 5a 02 	lds	r24, 0x025A	; 0x80025a <STEPPER_params+0x2e>
    293c:	90 91 5b 02 	lds	r25, 0x025B	; 0x80025b <STEPPER_params+0x2f>
    2940:	88 5e       	subi	r24, 0xE8	; 232
    2942:	93 40       	sbci	r25, 0x03	; 3
    2944:	a4 f0       	brlt	.+40     	; 0x296e <STEPPER_clk+0x6a>
    2946:	80 91 5a 02 	lds	r24, 0x025A	; 0x80025a <STEPPER_params+0x2e>
    294a:	90 91 5b 02 	lds	r25, 0x025B	; 0x80025b <STEPPER_params+0x2f>
    294e:	88 5e       	subi	r24, 0xE8	; 232
    2950:	93 40       	sbci	r25, 0x03	; 3
    2952:	90 93 5b 02 	sts	0x025B, r25	; 0x80025b <STEPPER_params+0x2f>
    2956:	80 93 5a 02 	sts	0x025A, r24	; 0x80025a <STEPPER_params+0x2e>
    295a:	41 e0       	ldi	r20, 0x01	; 1
    295c:	09 c0       	rjmp	.+18     	; 0x2970 <STEPPER_clk+0x6c>
    295e:	80 91 2e 02 	lds	r24, 0x022E	; 0x80022e <STEPPER_params+0x2>
    2962:	90 91 2f 02 	lds	r25, 0x022F	; 0x80022f <STEPPER_params+0x3>
    2966:	90 93 33 02 	sts	0x0233, r25	; 0x800233 <STEPPER_params+0x7>
    296a:	80 93 32 02 	sts	0x0232, r24	; 0x800232 <STEPPER_params+0x6>
    296e:	40 e0       	ldi	r20, 0x00	; 0
    2970:	80 91 38 02 	lds	r24, 0x0238	; 0x800238 <STEPPER_params+0xc>
    2974:	90 91 39 02 	lds	r25, 0x0239	; 0x800239 <STEPPER_params+0xd>
    2978:	89 2b       	or	r24, r25
    297a:	09 f1       	breq	.+66     	; 0x29be <STEPPER_clk+0xba>
    297c:	80 91 5c 02 	lds	r24, 0x025C	; 0x80025c <STEPPER_params+0x30>
    2980:	90 91 5d 02 	lds	r25, 0x025D	; 0x80025d <STEPPER_params+0x31>
    2984:	20 91 38 02 	lds	r18, 0x0238	; 0x800238 <STEPPER_params+0xc>
    2988:	30 91 39 02 	lds	r19, 0x0239	; 0x800239 <STEPPER_params+0xd>
    298c:	82 0f       	add	r24, r18
    298e:	93 1f       	adc	r25, r19
    2990:	90 93 5d 02 	sts	0x025D, r25	; 0x80025d <STEPPER_params+0x31>
    2994:	80 93 5c 02 	sts	0x025C, r24	; 0x80025c <STEPPER_params+0x30>
    2998:	80 91 5c 02 	lds	r24, 0x025C	; 0x80025c <STEPPER_params+0x30>
    299c:	90 91 5d 02 	lds	r25, 0x025D	; 0x80025d <STEPPER_params+0x31>
    29a0:	88 5e       	subi	r24, 0xE8	; 232
    29a2:	93 40       	sbci	r25, 0x03	; 3
    29a4:	a4 f0       	brlt	.+40     	; 0x29ce <STEPPER_clk+0xca>
    29a6:	80 91 5c 02 	lds	r24, 0x025C	; 0x80025c <STEPPER_params+0x30>
    29aa:	90 91 5d 02 	lds	r25, 0x025D	; 0x80025d <STEPPER_params+0x31>
    29ae:	88 5e       	subi	r24, 0xE8	; 232
    29b0:	93 40       	sbci	r25, 0x03	; 3
    29b2:	90 93 5d 02 	sts	0x025D, r25	; 0x80025d <STEPPER_params+0x31>
    29b6:	80 93 5c 02 	sts	0x025C, r24	; 0x80025c <STEPPER_params+0x30>
    29ba:	61 e0       	ldi	r22, 0x01	; 1
    29bc:	09 c0       	rjmp	.+18     	; 0x29d0 <STEPPER_clk+0xcc>
    29be:	80 91 30 02 	lds	r24, 0x0230	; 0x800230 <STEPPER_params+0x4>
    29c2:	90 91 31 02 	lds	r25, 0x0231	; 0x800231 <STEPPER_params+0x5>
    29c6:	90 93 35 02 	sts	0x0235, r25	; 0x800235 <STEPPER_params+0x9>
    29ca:	80 93 34 02 	sts	0x0234, r24	; 0x800234 <STEPPER_params+0x8>
    29ce:	60 e0       	ldi	r22, 0x00	; 0
    29d0:	84 2f       	mov	r24, r20
    29d2:	0e 94 33 15 	call	0x2a66	; 0x2a66 <STEPPER_process_accel>
    29d6:	80 91 56 02 	lds	r24, 0x0256	; 0x800256 <STEPPER_params+0x2a>
    29da:	90 91 57 02 	lds	r25, 0x0257	; 0x800257 <STEPPER_params+0x2b>
    29de:	20 91 32 02 	lds	r18, 0x0232	; 0x800232 <STEPPER_params+0x6>
    29e2:	30 91 33 02 	lds	r19, 0x0233	; 0x800233 <STEPPER_params+0x7>
    29e6:	28 0f       	add	r18, r24
    29e8:	39 1f       	adc	r19, r25
    29ea:	30 93 57 02 	sts	0x0257, r19	; 0x800257 <STEPPER_params+0x2b>
    29ee:	20 93 56 02 	sts	0x0256, r18	; 0x800256 <STEPPER_params+0x2a>
    29f2:	80 91 56 02 	lds	r24, 0x0256	; 0x800256 <STEPPER_params+0x2a>
    29f6:	90 91 57 02 	lds	r25, 0x0257	; 0x800257 <STEPPER_params+0x2b>
    29fa:	88 5e       	subi	r24, 0xE8	; 232
    29fc:	93 40       	sbci	r25, 0x03	; 3
    29fe:	14 f4       	brge	.+4      	; 0x2a04 <STEPPER_clk+0x100>
    2a00:	40 e0       	ldi	r20, 0x00	; 0
    2a02:	0b c0       	rjmp	.+22     	; 0x2a1a <STEPPER_clk+0x116>
    2a04:	80 91 56 02 	lds	r24, 0x0256	; 0x800256 <STEPPER_params+0x2a>
    2a08:	90 91 57 02 	lds	r25, 0x0257	; 0x800257 <STEPPER_params+0x2b>
    2a0c:	88 5e       	subi	r24, 0xE8	; 232
    2a0e:	93 40       	sbci	r25, 0x03	; 3
    2a10:	90 93 57 02 	sts	0x0257, r25	; 0x800257 <STEPPER_params+0x2b>
    2a14:	80 93 56 02 	sts	0x0256, r24	; 0x800256 <STEPPER_params+0x2a>
    2a18:	41 e0       	ldi	r20, 0x01	; 1
    2a1a:	80 91 58 02 	lds	r24, 0x0258	; 0x800258 <STEPPER_params+0x2c>
    2a1e:	90 91 59 02 	lds	r25, 0x0259	; 0x800259 <STEPPER_params+0x2d>
    2a22:	20 91 34 02 	lds	r18, 0x0234	; 0x800234 <STEPPER_params+0x8>
    2a26:	30 91 35 02 	lds	r19, 0x0235	; 0x800235 <STEPPER_params+0x9>
    2a2a:	28 0f       	add	r18, r24
    2a2c:	39 1f       	adc	r19, r25
    2a2e:	30 93 59 02 	sts	0x0259, r19	; 0x800259 <STEPPER_params+0x2d>
    2a32:	20 93 58 02 	sts	0x0258, r18	; 0x800258 <STEPPER_params+0x2c>
    2a36:	80 91 58 02 	lds	r24, 0x0258	; 0x800258 <STEPPER_params+0x2c>
    2a3a:	90 91 59 02 	lds	r25, 0x0259	; 0x800259 <STEPPER_params+0x2d>
    2a3e:	88 5e       	subi	r24, 0xE8	; 232
    2a40:	93 40       	sbci	r25, 0x03	; 3
    2a42:	14 f4       	brge	.+4      	; 0x2a48 <STEPPER_clk+0x144>
    2a44:	60 e0       	ldi	r22, 0x00	; 0
    2a46:	0b c0       	rjmp	.+22     	; 0x2a5e <STEPPER_clk+0x15a>
    2a48:	80 91 58 02 	lds	r24, 0x0258	; 0x800258 <STEPPER_params+0x2c>
    2a4c:	90 91 59 02 	lds	r25, 0x0259	; 0x800259 <STEPPER_params+0x2d>
    2a50:	88 5e       	subi	r24, 0xE8	; 232
    2a52:	93 40       	sbci	r25, 0x03	; 3
    2a54:	90 93 59 02 	sts	0x0259, r25	; 0x800259 <STEPPER_params+0x2d>
    2a58:	80 93 58 02 	sts	0x0258, r24	; 0x800258 <STEPPER_params+0x2c>
    2a5c:	61 e0       	ldi	r22, 0x01	; 1
    2a5e:	84 2f       	mov	r24, r20
    2a60:	0e 94 78 15 	call	0x2af0	; 0x2af0 <STEPPER_process_run_mode>
    2a64:	08 95       	ret

00002a66 <STEPPER_process_accel>:
    2a66:	88 23       	and	r24, r24
    2a68:	f1 f0       	breq	.+60     	; 0x2aa6 <STEPPER_process_accel+0x40>
    2a6a:	20 91 2e 02 	lds	r18, 0x022E	; 0x80022e <STEPPER_params+0x2>
    2a6e:	30 91 2f 02 	lds	r19, 0x022F	; 0x80022f <STEPPER_params+0x3>
    2a72:	80 91 32 02 	lds	r24, 0x0232	; 0x800232 <STEPPER_params+0x6>
    2a76:	90 91 33 02 	lds	r25, 0x0233	; 0x800233 <STEPPER_params+0x7>
    2a7a:	28 1b       	sub	r18, r24
    2a7c:	39 0b       	sbc	r19, r25
    2a7e:	12 16       	cp	r1, r18
    2a80:	13 06       	cpc	r1, r19
    2a82:	34 f4       	brge	.+12     	; 0x2a90 <STEPPER_process_accel+0x2a>
    2a84:	80 91 32 02 	lds	r24, 0x0232	; 0x800232 <STEPPER_params+0x6>
    2a88:	90 91 33 02 	lds	r25, 0x0233	; 0x800233 <STEPPER_params+0x7>
    2a8c:	01 96       	adiw	r24, 0x01	; 1
    2a8e:	07 c0       	rjmp	.+14     	; 0x2a9e <STEPPER_process_accel+0x38>
    2a90:	23 2b       	or	r18, r19
    2a92:	49 f0       	breq	.+18     	; 0x2aa6 <STEPPER_process_accel+0x40>
    2a94:	80 91 32 02 	lds	r24, 0x0232	; 0x800232 <STEPPER_params+0x6>
    2a98:	90 91 33 02 	lds	r25, 0x0233	; 0x800233 <STEPPER_params+0x7>
    2a9c:	01 97       	sbiw	r24, 0x01	; 1
    2a9e:	90 93 33 02 	sts	0x0233, r25	; 0x800233 <STEPPER_params+0x7>
    2aa2:	80 93 32 02 	sts	0x0232, r24	; 0x800232 <STEPPER_params+0x6>
    2aa6:	66 23       	and	r22, r22
    2aa8:	11 f1       	breq	.+68     	; 0x2aee <STEPPER_process_accel+0x88>
    2aaa:	20 91 30 02 	lds	r18, 0x0230	; 0x800230 <STEPPER_params+0x4>
    2aae:	30 91 31 02 	lds	r19, 0x0231	; 0x800231 <STEPPER_params+0x5>
    2ab2:	80 91 34 02 	lds	r24, 0x0234	; 0x800234 <STEPPER_params+0x8>
    2ab6:	90 91 35 02 	lds	r25, 0x0235	; 0x800235 <STEPPER_params+0x9>
    2aba:	28 1b       	sub	r18, r24
    2abc:	39 0b       	sbc	r19, r25
    2abe:	12 16       	cp	r1, r18
    2ac0:	13 06       	cpc	r1, r19
    2ac2:	54 f4       	brge	.+20     	; 0x2ad8 <STEPPER_process_accel+0x72>
    2ac4:	80 91 34 02 	lds	r24, 0x0234	; 0x800234 <STEPPER_params+0x8>
    2ac8:	90 91 35 02 	lds	r25, 0x0235	; 0x800235 <STEPPER_params+0x9>
    2acc:	01 96       	adiw	r24, 0x01	; 1
    2ace:	90 93 35 02 	sts	0x0235, r25	; 0x800235 <STEPPER_params+0x9>
    2ad2:	80 93 34 02 	sts	0x0234, r24	; 0x800234 <STEPPER_params+0x8>
    2ad6:	08 95       	ret
    2ad8:	23 2b       	or	r18, r19
    2ada:	49 f0       	breq	.+18     	; 0x2aee <STEPPER_process_accel+0x88>
    2adc:	80 91 34 02 	lds	r24, 0x0234	; 0x800234 <STEPPER_params+0x8>
    2ae0:	90 91 35 02 	lds	r25, 0x0235	; 0x800235 <STEPPER_params+0x9>
    2ae4:	01 97       	sbiw	r24, 0x01	; 1
    2ae6:	90 93 35 02 	sts	0x0235, r25	; 0x800235 <STEPPER_params+0x9>
    2aea:	80 93 34 02 	sts	0x0234, r24	; 0x800234 <STEPPER_params+0x8>
    2aee:	08 95       	ret

00002af0 <STEPPER_process_run_mode>:
    2af0:	0f 93       	push	r16
    2af2:	1f 93       	push	r17
    2af4:	18 2f       	mov	r17, r24
    2af6:	06 2f       	mov	r16, r22
    2af8:	80 91 62 02 	lds	r24, 0x0262	; 0x800262 <STEPPER_params+0x36>
    2afc:	88 23       	and	r24, r24
    2afe:	09 f0       	breq	.+2      	; 0x2b02 <STEPPER_process_run_mode+0x12>
    2b00:	e7 c0       	rjmp	.+462    	; 0x2cd0 <STEPPER_process_run_mode+0x1e0>
    2b02:	80 91 4a 02 	lds	r24, 0x024A	; 0x80024a <STEPPER_params+0x1e>
    2b06:	88 23       	and	r24, r24
    2b08:	09 f0       	breq	.+2      	; 0x2b0c <STEPPER_process_run_mode+0x1c>
    2b0a:	5a c0       	rjmp	.+180    	; 0x2bc0 <STEPPER_process_run_mode+0xd0>
    2b0c:	80 91 32 02 	lds	r24, 0x0232	; 0x800232 <STEPPER_params+0x6>
    2b10:	90 91 33 02 	lds	r25, 0x0233	; 0x800233 <STEPPER_params+0x7>
    2b14:	89 2b       	or	r24, r25
    2b16:	e9 f4       	brne	.+58     	; 0x2b52 <STEPPER_process_run_mode+0x62>
    2b18:	80 91 db 01 	lds	r24, 0x01DB	; 0x8001db <stepper_pattern.1636>
    2b1c:	83 7e       	andi	r24, 0xE3	; 227
    2b1e:	80 93 db 01 	sts	0x01DB, r24	; 0x8001db <stepper_pattern.1636>
    2b22:	10 92 53 02 	sts	0x0253, r1	; 0x800253 <STEPPER_params+0x27>
    2b26:	80 91 5e 02 	lds	r24, 0x025E	; 0x80025e <STEPPER_params+0x32>
    2b2a:	88 23       	and	r24, r24
    2b2c:	09 f4       	brne	.+2      	; 0x2b30 <STEPPER_process_run_mode+0x40>
    2b2e:	5d c0       	rjmp	.+186    	; 0x2bea <STEPPER_process_run_mode+0xfa>
    2b30:	60 91 4c 02 	lds	r22, 0x024C	; 0x80024c <STEPPER_params+0x20>
    2b34:	80 e0       	ldi	r24, 0x00	; 0
    2b36:	0e 94 a2 09 	call	0x1344	; 0x1344 <STEPPER_stop>
    2b3a:	e0 91 60 02 	lds	r30, 0x0260	; 0x800260 <STEPPER_params+0x34>
    2b3e:	f0 91 61 02 	lds	r31, 0x0261	; 0x800261 <STEPPER_params+0x35>
    2b42:	30 97       	sbiw	r30, 0x00	; 0
    2b44:	09 f4       	brne	.+2      	; 0x2b48 <STEPPER_process_run_mode+0x58>
    2b46:	51 c0       	rjmp	.+162    	; 0x2bea <STEPPER_process_run_mode+0xfa>
    2b48:	81 e0       	ldi	r24, 0x01	; 1
    2b4a:	80 83       	st	Z, r24
    2b4c:	10 92 5e 02 	sts	0x025E, r1	; 0x80025e <STEPPER_params+0x32>
    2b50:	4c c0       	rjmp	.+152    	; 0x2bea <STEPPER_process_run_mode+0xfa>
    2b52:	80 91 2c 02 	lds	r24, 0x022C	; 0x80022c <STEPPER_params>
    2b56:	81 30       	cpi	r24, 0x01	; 1
    2b58:	41 f4       	brne	.+16     	; 0x2b6a <STEPPER_process_run_mode+0x7a>
    2b5a:	80 91 3e 02 	lds	r24, 0x023E	; 0x80023e <STEPPER_params+0x12>
    2b5e:	90 91 3f 02 	lds	r25, 0x023F	; 0x80023f <STEPPER_params+0x13>
    2b62:	01 97       	sbiw	r24, 0x01	; 1
    2b64:	11 f4       	brne	.+4      	; 0x2b6a <STEPPER_process_run_mode+0x7a>
    2b66:	11 e0       	ldi	r17, 0x01	; 1
    2b68:	02 c0       	rjmp	.+4      	; 0x2b6e <STEPPER_process_run_mode+0x7e>
    2b6a:	11 23       	and	r17, r17
    2b6c:	f1 f1       	breq	.+124    	; 0x2bea <STEPPER_process_run_mode+0xfa>
    2b6e:	e0 91 51 02 	lds	r30, 0x0251	; 0x800251 <STEPPER_params+0x25>
    2b72:	f0 e0       	ldi	r31, 0x00	; 0
    2b74:	ed 5e       	subi	r30, 0xED	; 237
    2b76:	fe 4f       	sbci	r31, 0xFE	; 254
    2b78:	90 91 db 01 	lds	r25, 0x01DB	; 0x8001db <stepper_pattern.1636>
    2b7c:	93 7e       	andi	r25, 0xE3	; 227
    2b7e:	80 81       	ld	r24, Z
    2b80:	89 2b       	or	r24, r25
    2b82:	80 93 db 01 	sts	0x01DB, r24	; 0x8001db <stepper_pattern.1636>
    2b86:	80 91 4f 02 	lds	r24, 0x024F	; 0x80024f <STEPPER_params+0x23>
    2b8a:	88 23       	and	r24, r24
    2b8c:	21 f4       	brne	.+8      	; 0x2b96 <STEPPER_process_run_mode+0xa6>
    2b8e:	80 91 51 02 	lds	r24, 0x0251	; 0x800251 <STEPPER_params+0x25>
    2b92:	8f 5f       	subi	r24, 0xFF	; 255
    2b94:	03 c0       	rjmp	.+6      	; 0x2b9c <STEPPER_process_run_mode+0xac>
    2b96:	80 91 51 02 	lds	r24, 0x0251	; 0x800251 <STEPPER_params+0x25>
    2b9a:	81 50       	subi	r24, 0x01	; 1
    2b9c:	80 93 51 02 	sts	0x0251, r24	; 0x800251 <STEPPER_params+0x25>
    2ba0:	80 91 51 02 	lds	r24, 0x0251	; 0x800251 <STEPPER_params+0x25>
    2ba4:	83 70       	andi	r24, 0x03	; 3
    2ba6:	80 93 51 02 	sts	0x0251, r24	; 0x800251 <STEPPER_params+0x25>
    2baa:	81 e0       	ldi	r24, 0x01	; 1
    2bac:	80 93 53 02 	sts	0x0253, r24	; 0x800253 <STEPPER_params+0x27>
    2bb0:	80 91 2c 02 	lds	r24, 0x022C	; 0x80022c <STEPPER_params>
    2bb4:	81 30       	cpi	r24, 0x01	; 1
    2bb6:	c9 f4       	brne	.+50     	; 0x2bea <STEPPER_process_run_mode+0xfa>
    2bb8:	80 e0       	ldi	r24, 0x00	; 0
    2bba:	0e 94 7b 16 	call	0x2cf6	; 0x2cf6 <STEPPER_process_step_mode>
    2bbe:	15 c0       	rjmp	.+42     	; 0x2bea <STEPPER_process_run_mode+0xfa>
    2bc0:	90 91 db 01 	lds	r25, 0x01DB	; 0x8001db <stepper_pattern.1636>
    2bc4:	93 7e       	andi	r25, 0xE3	; 227
    2bc6:	90 93 db 01 	sts	0x01DB, r25	; 0x8001db <stepper_pattern.1636>
    2bca:	e0 91 51 02 	lds	r30, 0x0251	; 0x800251 <STEPPER_params+0x25>
    2bce:	f0 e0       	ldi	r31, 0x00	; 0
    2bd0:	ed 5e       	subi	r30, 0xED	; 237
    2bd2:	fe 4f       	sbci	r31, 0xFE	; 254
    2bd4:	80 81       	ld	r24, Z
    2bd6:	89 2b       	or	r24, r25
    2bd8:	80 93 db 01 	sts	0x01DB, r24	; 0x8001db <stepper_pattern.1636>
    2bdc:	82 e0       	ldi	r24, 0x02	; 2
    2bde:	80 93 53 02 	sts	0x0253, r24	; 0x800253 <STEPPER_params+0x27>
    2be2:	10 92 33 02 	sts	0x0233, r1	; 0x800233 <STEPPER_params+0x7>
    2be6:	10 92 32 02 	sts	0x0232, r1	; 0x800232 <STEPPER_params+0x6>
    2bea:	80 91 4b 02 	lds	r24, 0x024B	; 0x80024b <STEPPER_params+0x1f>
    2bee:	88 23       	and	r24, r24
    2bf0:	09 f0       	breq	.+2      	; 0x2bf4 <STEPPER_process_run_mode+0x104>
    2bf2:	59 c0       	rjmp	.+178    	; 0x2ca6 <STEPPER_process_run_mode+0x1b6>
    2bf4:	80 91 34 02 	lds	r24, 0x0234	; 0x800234 <STEPPER_params+0x8>
    2bf8:	90 91 35 02 	lds	r25, 0x0235	; 0x800235 <STEPPER_params+0x9>
    2bfc:	89 2b       	or	r24, r25
    2bfe:	e9 f4       	brne	.+58     	; 0x2c3a <STEPPER_process_run_mode+0x14a>
    2c00:	80 91 db 01 	lds	r24, 0x01DB	; 0x8001db <stepper_pattern.1636>
    2c04:	8f 71       	andi	r24, 0x1F	; 31
    2c06:	80 93 db 01 	sts	0x01DB, r24	; 0x8001db <stepper_pattern.1636>
    2c0a:	10 92 54 02 	sts	0x0254, r1	; 0x800254 <STEPPER_params+0x28>
    2c0e:	80 91 5f 02 	lds	r24, 0x025F	; 0x80025f <STEPPER_params+0x33>
    2c12:	88 23       	and	r24, r24
    2c14:	09 f4       	brne	.+2      	; 0x2c18 <STEPPER_process_run_mode+0x128>
    2c16:	5c c0       	rjmp	.+184    	; 0x2cd0 <STEPPER_process_run_mode+0x1e0>
    2c18:	60 91 4d 02 	lds	r22, 0x024D	; 0x80024d <STEPPER_params+0x21>
    2c1c:	81 e0       	ldi	r24, 0x01	; 1
    2c1e:	0e 94 a2 09 	call	0x1344	; 0x1344 <STEPPER_stop>
    2c22:	e0 91 60 02 	lds	r30, 0x0260	; 0x800260 <STEPPER_params+0x34>
    2c26:	f0 91 61 02 	lds	r31, 0x0261	; 0x800261 <STEPPER_params+0x35>
    2c2a:	30 97       	sbiw	r30, 0x00	; 0
    2c2c:	09 f4       	brne	.+2      	; 0x2c30 <STEPPER_process_run_mode+0x140>
    2c2e:	50 c0       	rjmp	.+160    	; 0x2cd0 <STEPPER_process_run_mode+0x1e0>
    2c30:	81 e0       	ldi	r24, 0x01	; 1
    2c32:	81 83       	std	Z+1, r24	; 0x01
    2c34:	10 92 5f 02 	sts	0x025F, r1	; 0x80025f <STEPPER_params+0x33>
    2c38:	4b c0       	rjmp	.+150    	; 0x2cd0 <STEPPER_process_run_mode+0x1e0>
    2c3a:	80 91 2d 02 	lds	r24, 0x022D	; 0x80022d <STEPPER_params+0x1>
    2c3e:	81 30       	cpi	r24, 0x01	; 1
    2c40:	41 f4       	brne	.+16     	; 0x2c52 <STEPPER_process_run_mode+0x162>
    2c42:	80 91 40 02 	lds	r24, 0x0240	; 0x800240 <STEPPER_params+0x14>
    2c46:	90 91 41 02 	lds	r25, 0x0241	; 0x800241 <STEPPER_params+0x15>
    2c4a:	01 97       	sbiw	r24, 0x01	; 1
    2c4c:	11 f4       	brne	.+4      	; 0x2c52 <STEPPER_process_run_mode+0x162>
    2c4e:	01 e0       	ldi	r16, 0x01	; 1
    2c50:	02 c0       	rjmp	.+4      	; 0x2c56 <STEPPER_process_run_mode+0x166>
    2c52:	00 23       	and	r16, r16
    2c54:	e9 f1       	breq	.+122    	; 0x2cd0 <STEPPER_process_run_mode+0x1e0>
    2c56:	e0 91 52 02 	lds	r30, 0x0252	; 0x800252 <STEPPER_params+0x26>
    2c5a:	f0 e0       	ldi	r31, 0x00	; 0
    2c5c:	e9 5e       	subi	r30, 0xE9	; 233
    2c5e:	fe 4f       	sbci	r31, 0xFE	; 254
    2c60:	90 91 db 01 	lds	r25, 0x01DB	; 0x8001db <stepper_pattern.1636>
    2c64:	9f 71       	andi	r25, 0x1F	; 31
    2c66:	80 81       	ld	r24, Z
    2c68:	89 2b       	or	r24, r25
    2c6a:	80 93 db 01 	sts	0x01DB, r24	; 0x8001db <stepper_pattern.1636>
    2c6e:	80 91 50 02 	lds	r24, 0x0250	; 0x800250 <STEPPER_params+0x24>
    2c72:	88 23       	and	r24, r24
    2c74:	21 f4       	brne	.+8      	; 0x2c7e <STEPPER_process_run_mode+0x18e>
    2c76:	80 91 52 02 	lds	r24, 0x0252	; 0x800252 <STEPPER_params+0x26>
    2c7a:	8f 5f       	subi	r24, 0xFF	; 255
    2c7c:	03 c0       	rjmp	.+6      	; 0x2c84 <STEPPER_process_run_mode+0x194>
    2c7e:	80 91 52 02 	lds	r24, 0x0252	; 0x800252 <STEPPER_params+0x26>
    2c82:	81 50       	subi	r24, 0x01	; 1
    2c84:	80 93 52 02 	sts	0x0252, r24	; 0x800252 <STEPPER_params+0x26>
    2c88:	80 91 52 02 	lds	r24, 0x0252	; 0x800252 <STEPPER_params+0x26>
    2c8c:	83 70       	andi	r24, 0x03	; 3
    2c8e:	80 93 52 02 	sts	0x0252, r24	; 0x800252 <STEPPER_params+0x26>
    2c92:	81 e0       	ldi	r24, 0x01	; 1
    2c94:	80 93 54 02 	sts	0x0254, r24	; 0x800254 <STEPPER_params+0x28>
    2c98:	80 91 2d 02 	lds	r24, 0x022D	; 0x80022d <STEPPER_params+0x1>
    2c9c:	81 30       	cpi	r24, 0x01	; 1
    2c9e:	c1 f4       	brne	.+48     	; 0x2cd0 <STEPPER_process_run_mode+0x1e0>
    2ca0:	0e 94 7b 16 	call	0x2cf6	; 0x2cf6 <STEPPER_process_step_mode>
    2ca4:	15 c0       	rjmp	.+42     	; 0x2cd0 <STEPPER_process_run_mode+0x1e0>
    2ca6:	90 91 db 01 	lds	r25, 0x01DB	; 0x8001db <stepper_pattern.1636>
    2caa:	9f 71       	andi	r25, 0x1F	; 31
    2cac:	90 93 db 01 	sts	0x01DB, r25	; 0x8001db <stepper_pattern.1636>
    2cb0:	e0 91 52 02 	lds	r30, 0x0252	; 0x800252 <STEPPER_params+0x26>
    2cb4:	f0 e0       	ldi	r31, 0x00	; 0
    2cb6:	e9 5e       	subi	r30, 0xE9	; 233
    2cb8:	fe 4f       	sbci	r31, 0xFE	; 254
    2cba:	80 81       	ld	r24, Z
    2cbc:	89 2b       	or	r24, r25
    2cbe:	80 93 db 01 	sts	0x01DB, r24	; 0x8001db <stepper_pattern.1636>
    2cc2:	82 e0       	ldi	r24, 0x02	; 2
    2cc4:	80 93 54 02 	sts	0x0254, r24	; 0x800254 <STEPPER_params+0x28>
    2cc8:	10 92 35 02 	sts	0x0235, r1	; 0x800235 <STEPPER_params+0x9>
    2ccc:	10 92 34 02 	sts	0x0234, r1	; 0x800234 <STEPPER_params+0x8>
    2cd0:	80 91 55 02 	lds	r24, 0x0255	; 0x800255 <STEPPER_params+0x29>
    2cd4:	88 23       	and	r24, r24
    2cd6:	31 f4       	brne	.+12     	; 0x2ce4 <STEPPER_process_run_mode+0x1f4>
    2cd8:	8b ed       	ldi	r24, 0xDB	; 219
    2cda:	91 e0       	ldi	r25, 0x01	; 1
    2cdc:	61 2f       	mov	r22, r17
    2cde:	40 2f       	mov	r20, r16
    2ce0:	0e 94 3d 17 	call	0x2e7a	; 0x2e7a <STEPPER_process_pwm>
    2ce4:	88 b1       	in	r24, 0x08	; 8
    2ce6:	83 70       	andi	r24, 0x03	; 3
    2ce8:	90 91 db 01 	lds	r25, 0x01DB	; 0x8001db <stepper_pattern.1636>
    2cec:	89 2b       	or	r24, r25
    2cee:	88 b9       	out	0x08, r24	; 8
    2cf0:	1f 91       	pop	r17
    2cf2:	0f 91       	pop	r16
    2cf4:	08 95       	ret

00002cf6 <STEPPER_process_step_mode>:
    2cf6:	88 23       	and	r24, r24
    2cf8:	21 f0       	breq	.+8      	; 0x2d02 <STEPPER_process_step_mode+0xc>
    2cfa:	81 30       	cpi	r24, 0x01	; 1
    2cfc:	09 f0       	breq	.+2      	; 0x2d00 <STEPPER_process_step_mode+0xa>
    2cfe:	4e c0       	rjmp	.+156    	; 0x2d9c <STEPPER_process_step_mode+0xa6>
    2d00:	27 c0       	rjmp	.+78     	; 0x2d50 <STEPPER_process_step_mode+0x5a>
    2d02:	80 91 3e 02 	lds	r24, 0x023E	; 0x80023e <STEPPER_params+0x12>
    2d06:	90 91 3f 02 	lds	r25, 0x023F	; 0x80023f <STEPPER_params+0x13>
    2d0a:	89 2b       	or	r24, r25
    2d0c:	49 f0       	breq	.+18     	; 0x2d20 <STEPPER_process_step_mode+0x2a>
    2d0e:	80 91 3e 02 	lds	r24, 0x023E	; 0x80023e <STEPPER_params+0x12>
    2d12:	90 91 3f 02 	lds	r25, 0x023F	; 0x80023f <STEPPER_params+0x13>
    2d16:	01 97       	sbiw	r24, 0x01	; 1
    2d18:	90 93 3f 02 	sts	0x023F, r25	; 0x80023f <STEPPER_params+0x13>
    2d1c:	80 93 3e 02 	sts	0x023E, r24	; 0x80023e <STEPPER_params+0x12>
    2d20:	80 91 5e 02 	lds	r24, 0x025E	; 0x80025e <STEPPER_params+0x32>
    2d24:	88 23       	and	r24, r24
    2d26:	d1 f5       	brne	.+116    	; 0x2d9c <STEPPER_process_step_mode+0xa6>
    2d28:	20 91 3e 02 	lds	r18, 0x023E	; 0x80023e <STEPPER_params+0x12>
    2d2c:	30 91 3f 02 	lds	r19, 0x023F	; 0x80023f <STEPPER_params+0x13>
    2d30:	80 91 42 02 	lds	r24, 0x0242	; 0x800242 <STEPPER_params+0x16>
    2d34:	90 91 43 02 	lds	r25, 0x0243	; 0x800243 <STEPPER_params+0x17>
    2d38:	28 17       	cp	r18, r24
    2d3a:	39 07       	cpc	r19, r25
    2d3c:	79 f5       	brne	.+94     	; 0x2d9c <STEPPER_process_step_mode+0xa6>
    2d3e:	80 e0       	ldi	r24, 0x00	; 0
    2d40:	60 e0       	ldi	r22, 0x00	; 0
    2d42:	70 e0       	ldi	r23, 0x00	; 0
    2d44:	0e 94 3e 08 	call	0x107c	; 0x107c <STEPPER_set_speed>
    2d48:	81 e0       	ldi	r24, 0x01	; 1
    2d4a:	80 93 5e 02 	sts	0x025E, r24	; 0x80025e <STEPPER_params+0x32>
    2d4e:	08 95       	ret
    2d50:	80 91 40 02 	lds	r24, 0x0240	; 0x800240 <STEPPER_params+0x14>
    2d54:	90 91 41 02 	lds	r25, 0x0241	; 0x800241 <STEPPER_params+0x15>
    2d58:	89 2b       	or	r24, r25
    2d5a:	49 f0       	breq	.+18     	; 0x2d6e <STEPPER_process_step_mode+0x78>
    2d5c:	80 91 40 02 	lds	r24, 0x0240	; 0x800240 <STEPPER_params+0x14>
    2d60:	90 91 41 02 	lds	r25, 0x0241	; 0x800241 <STEPPER_params+0x15>
    2d64:	01 97       	sbiw	r24, 0x01	; 1
    2d66:	90 93 41 02 	sts	0x0241, r25	; 0x800241 <STEPPER_params+0x15>
    2d6a:	80 93 40 02 	sts	0x0240, r24	; 0x800240 <STEPPER_params+0x14>
    2d6e:	80 91 5f 02 	lds	r24, 0x025F	; 0x80025f <STEPPER_params+0x33>
    2d72:	88 23       	and	r24, r24
    2d74:	99 f4       	brne	.+38     	; 0x2d9c <STEPPER_process_step_mode+0xa6>
    2d76:	20 91 40 02 	lds	r18, 0x0240	; 0x800240 <STEPPER_params+0x14>
    2d7a:	30 91 41 02 	lds	r19, 0x0241	; 0x800241 <STEPPER_params+0x15>
    2d7e:	80 91 44 02 	lds	r24, 0x0244	; 0x800244 <STEPPER_params+0x18>
    2d82:	90 91 45 02 	lds	r25, 0x0245	; 0x800245 <STEPPER_params+0x19>
    2d86:	28 17       	cp	r18, r24
    2d88:	39 07       	cpc	r19, r25
    2d8a:	41 f4       	brne	.+16     	; 0x2d9c <STEPPER_process_step_mode+0xa6>
    2d8c:	81 e0       	ldi	r24, 0x01	; 1
    2d8e:	60 e0       	ldi	r22, 0x00	; 0
    2d90:	70 e0       	ldi	r23, 0x00	; 0
    2d92:	0e 94 3e 08 	call	0x107c	; 0x107c <STEPPER_set_speed>
    2d96:	81 e0       	ldi	r24, 0x01	; 1
    2d98:	80 93 5f 02 	sts	0x025F, r24	; 0x80025f <STEPPER_params+0x33>
    2d9c:	08 95       	ret

00002d9e <TMRSRVC_process>:
    2d9e:	ff 92       	push	r15
    2da0:	0f 93       	push	r16
    2da2:	1f 93       	push	r17
    2da4:	cf 93       	push	r28
    2da6:	df 93       	push	r29
    2da8:	80 91 85 02 	lds	r24, 0x0285	; 0x800285 <tmrNodes>
    2dac:	88 23       	and	r24, r24
    2dae:	09 f4       	brne	.+2      	; 0x2db2 <TMRSRVC_process+0x14>
    2db0:	59 c0       	rjmp	.+178    	; 0x2e64 <TMRSRVC_process+0xc6>
    2db2:	00 91 86 02 	lds	r16, 0x0286	; 0x800286 <tmrNodes+0x1>
    2db6:	10 91 87 02 	lds	r17, 0x0287	; 0x800287 <tmrNodes+0x2>
    2dba:	f8 01       	movw	r30, r16
    2dbc:	c0 81       	ld	r28, Z
    2dbe:	d1 81       	ldd	r29, Z+1	; 0x01
    2dc0:	8c 81       	ldd	r24, Y+4	; 0x04
    2dc2:	9d 81       	ldd	r25, Y+5	; 0x05
    2dc4:	01 97       	sbiw	r24, 0x01	; 1
    2dc6:	9d 83       	std	Y+5, r25	; 0x05
    2dc8:	8c 83       	std	Y+4, r24	; 0x04
    2dca:	18 16       	cp	r1, r24
    2dcc:	19 06       	cpc	r1, r25
    2dce:	0c f4       	brge	.+2      	; 0x2dd2 <TMRSRVC_process+0x34>
    2dd0:	49 c0       	rjmp	.+146    	; 0x2e64 <TMRSRVC_process+0xc6>
    2dd2:	89 81       	ldd	r24, Y+1	; 0x01
    2dd4:	80 ff       	sbrs	r24, 0
    2dd6:	05 c0       	rjmp	.+10     	; 0x2de2 <TMRSRVC_process+0x44>
    2dd8:	8e 81       	ldd	r24, Y+6	; 0x06
    2dda:	88 23       	and	r24, r24
    2ddc:	11 f4       	brne	.+4      	; 0x2de2 <TMRSRVC_process+0x44>
    2dde:	81 e0       	ldi	r24, 0x01	; 1
    2de0:	8e 83       	std	Y+6, r24	; 0x06
    2de2:	89 81       	ldd	r24, Y+1	; 0x01
    2de4:	81 ff       	sbrs	r24, 1
    2de6:	03 c0       	rjmp	.+6      	; 0x2dee <TMRSRVC_process+0x50>
    2de8:	ef 81       	ldd	r30, Y+7	; 0x07
    2dea:	f8 85       	ldd	r31, Y+8	; 0x08
    2dec:	09 95       	icall
    2dee:	80 91 85 02 	lds	r24, 0x0285	; 0x800285 <tmrNodes>
    2df2:	82 30       	cpi	r24, 0x02	; 2
    2df4:	a8 f0       	brcs	.+42     	; 0x2e20 <TMRSRVC_process+0x82>
    2df6:	f8 01       	movw	r30, r16
    2df8:	82 81       	ldd	r24, Z+2	; 0x02
    2dfa:	93 81       	ldd	r25, Z+3	; 0x03
    2dfc:	90 93 87 02 	sts	0x0287, r25	; 0x800287 <tmrNodes+0x2>
    2e00:	80 93 86 02 	sts	0x0286, r24	; 0x800286 <tmrNodes+0x1>
    2e04:	13 82       	std	Z+3, r1	; 0x03
    2e06:	12 82       	std	Z+2, r1	; 0x02
    2e08:	e0 91 00 00 	lds	r30, 0x0000	; 0x800000 <__TEXT_REGION_LENGTH__+0x7e0000>
    2e0c:	f0 91 01 00 	lds	r31, 0x0001	; 0x800001 <__TEXT_REGION_LENGTH__+0x7e0001>
    2e10:	84 81       	ldd	r24, Z+4	; 0x04
    2e12:	95 81       	ldd	r25, Z+5	; 0x05
    2e14:	18 16       	cp	r1, r24
    2e16:	19 06       	cpc	r1, r25
    2e18:	3c f0       	brlt	.+14     	; 0x2e28 <TMRSRVC_process+0x8a>
    2e1a:	ff 24       	eor	r15, r15
    2e1c:	f3 94       	inc	r15
    2e1e:	05 c0       	rjmp	.+10     	; 0x2e2a <TMRSRVC_process+0x8c>
    2e20:	10 92 87 02 	sts	0x0287, r1	; 0x800287 <tmrNodes+0x2>
    2e24:	10 92 86 02 	sts	0x0286, r1	; 0x800286 <tmrNodes+0x1>
    2e28:	ff 24       	eor	r15, r15
    2e2a:	80 91 85 02 	lds	r24, 0x0285	; 0x800285 <tmrNodes>
    2e2e:	81 50       	subi	r24, 0x01	; 1
    2e30:	80 93 85 02 	sts	0x0285, r24	; 0x800285 <tmrNodes>
    2e34:	80 91 85 02 	lds	r24, 0x0285	; 0x800285 <tmrNodes>
    2e38:	88 23       	and	r24, r24
    2e3a:	11 f4       	brne	.+4      	; 0x2e40 <TMRSRVC_process+0xa2>
    2e3c:	0e 94 3a 17 	call	0x2e74	; 0x2e74 <TMRSRVC_stop>
    2e40:	89 81       	ldd	r24, Y+1	; 0x01
    2e42:	82 ff       	sbrs	r24, 2
    2e44:	08 c0       	rjmp	.+16     	; 0x2e56 <TMRSRVC_process+0xb8>
    2e46:	8a 81       	ldd	r24, Y+2	; 0x02
    2e48:	9b 81       	ldd	r25, Y+3	; 0x03
    2e4a:	9d 83       	std	Y+5, r25	; 0x05
    2e4c:	8c 83       	std	Y+4, r24	; 0x04
    2e4e:	c8 01       	movw	r24, r16
    2e50:	0e 94 b6 0b 	call	0x176c	; 0x176c <TMRSRVC_insert>
    2e54:	08 c0       	rjmp	.+16     	; 0x2e66 <TMRSRVC_process+0xc8>
    2e56:	c8 01       	movw	r24, r16
    2e58:	0e 94 a5 24 	call	0x494a	; 0x494a <free>
    2e5c:	89 81       	ldd	r24, Y+1	; 0x01
    2e5e:	8f 7e       	andi	r24, 0xEF	; 239
    2e60:	89 83       	std	Y+1, r24	; 0x01
    2e62:	01 c0       	rjmp	.+2      	; 0x2e66 <TMRSRVC_process+0xc8>
    2e64:	ff 24       	eor	r15, r15
    2e66:	8f 2d       	mov	r24, r15
    2e68:	df 91       	pop	r29
    2e6a:	cf 91       	pop	r28
    2e6c:	1f 91       	pop	r17
    2e6e:	0f 91       	pop	r16
    2e70:	ff 90       	pop	r15
    2e72:	08 95       	ret

00002e74 <TMRSRVC_stop>:
    2e74:	10 92 da 01 	sts	0x01DA, r1	; 0x8001da <timer_run_status>
    2e78:	08 95       	ret

00002e7a <STEPPER_process_pwm>:
    2e7a:	fc 01       	movw	r30, r24
    2e7c:	80 91 53 02 	lds	r24, 0x0253	; 0x800253 <STEPPER_params+0x27>
    2e80:	82 30       	cpi	r24, 0x02	; 2
    2e82:	69 f4       	brne	.+26     	; 0x2e9e <STEPPER_process_pwm+0x24>
    2e84:	80 91 df 01 	lds	r24, 0x01DF	; 0x8001df <prev_state_left.1637>
    2e88:	91 e0       	ldi	r25, 0x01	; 1
    2e8a:	89 27       	eor	r24, r25
    2e8c:	80 93 df 01 	sts	0x01DF, r24	; 0x8001df <prev_state_left.1637>
    2e90:	88 23       	and	r24, r24
    2e92:	09 f0       	breq	.+2      	; 0x2e96 <STEPPER_process_pwm+0x1c>
    2e94:	3e c0       	rjmp	.+124    	; 0x2f12 <STEPPER_process_pwm+0x98>
    2e96:	80 81       	ld	r24, Z
    2e98:	83 7e       	andi	r24, 0xE3	; 227
    2e9a:	80 83       	st	Z, r24
    2e9c:	3a c0       	rjmp	.+116    	; 0x2f12 <STEPPER_process_pwm+0x98>
    2e9e:	80 91 32 02 	lds	r24, 0x0232	; 0x800232 <STEPPER_params+0x6>
    2ea2:	90 91 33 02 	lds	r25, 0x0233	; 0x800233 <STEPPER_params+0x7>
    2ea6:	c3 97       	sbiw	r24, 0x33	; 51
    2ea8:	a4 f5       	brge	.+104    	; 0x2f12 <STEPPER_process_pwm+0x98>
    2eaa:	66 23       	and	r22, r22
    2eac:	d1 f0       	breq	.+52     	; 0x2ee2 <STEPPER_process_pwm+0x68>
    2eae:	20 91 32 02 	lds	r18, 0x0232	; 0x800232 <STEPPER_params+0x6>
    2eb2:	30 91 33 02 	lds	r19, 0x0233	; 0x800233 <STEPPER_params+0x7>
    2eb6:	80 e6       	ldi	r24, 0x60	; 96
    2eb8:	90 e0       	ldi	r25, 0x00	; 0
    2eba:	bc 01       	movw	r22, r24
    2ebc:	26 9f       	mul	r18, r22
    2ebe:	c0 01       	movw	r24, r0
    2ec0:	27 9f       	mul	r18, r23
    2ec2:	90 0d       	add	r25, r0
    2ec4:	36 9f       	mul	r19, r22
    2ec6:	90 0d       	add	r25, r0
    2ec8:	11 24       	eor	r1, r1
    2eca:	88 0f       	add	r24, r24
    2ecc:	89 2f       	mov	r24, r25
    2ece:	88 1f       	adc	r24, r24
    2ed0:	99 0b       	sbc	r25, r25
    2ed2:	90 93 47 02 	sts	0x0247, r25	; 0x800247 <STEPPER_params+0x1b>
    2ed6:	80 93 46 02 	sts	0x0246, r24	; 0x800246 <STEPPER_params+0x1a>
    2eda:	81 e0       	ldi	r24, 0x01	; 1
    2edc:	80 93 dd 01 	sts	0x01DD, r24	; 0x8001dd <processing_left_pwm.1639>
    2ee0:	18 c0       	rjmp	.+48     	; 0x2f12 <STEPPER_process_pwm+0x98>
    2ee2:	80 91 dd 01 	lds	r24, 0x01DD	; 0x8001dd <processing_left_pwm.1639>
    2ee6:	88 23       	and	r24, r24
    2ee8:	a1 f0       	breq	.+40     	; 0x2f12 <STEPPER_process_pwm+0x98>
    2eea:	80 91 46 02 	lds	r24, 0x0246	; 0x800246 <STEPPER_params+0x1a>
    2eee:	90 91 47 02 	lds	r25, 0x0247	; 0x800247 <STEPPER_params+0x1b>
    2ef2:	01 97       	sbiw	r24, 0x01	; 1
    2ef4:	90 93 47 02 	sts	0x0247, r25	; 0x800247 <STEPPER_params+0x1b>
    2ef8:	80 93 46 02 	sts	0x0246, r24	; 0x800246 <STEPPER_params+0x1a>
    2efc:	80 91 46 02 	lds	r24, 0x0246	; 0x800246 <STEPPER_params+0x1a>
    2f00:	90 91 47 02 	lds	r25, 0x0247	; 0x800247 <STEPPER_params+0x1b>
    2f04:	89 2b       	or	r24, r25
    2f06:	29 f4       	brne	.+10     	; 0x2f12 <STEPPER_process_pwm+0x98>
    2f08:	80 81       	ld	r24, Z
    2f0a:	83 7e       	andi	r24, 0xE3	; 227
    2f0c:	80 83       	st	Z, r24
    2f0e:	10 92 dd 01 	sts	0x01DD, r1	; 0x8001dd <processing_left_pwm.1639>
    2f12:	80 91 54 02 	lds	r24, 0x0254	; 0x800254 <STEPPER_params+0x28>
    2f16:	82 30       	cpi	r24, 0x02	; 2
    2f18:	69 f4       	brne	.+26     	; 0x2f34 <STEPPER_process_pwm+0xba>
    2f1a:	80 91 de 01 	lds	r24, 0x01DE	; 0x8001de <prev_state_right.1638>
    2f1e:	91 e0       	ldi	r25, 0x01	; 1
    2f20:	89 27       	eor	r24, r25
    2f22:	80 93 de 01 	sts	0x01DE, r24	; 0x8001de <prev_state_right.1638>
    2f26:	88 23       	and	r24, r24
    2f28:	09 f0       	breq	.+2      	; 0x2f2c <STEPPER_process_pwm+0xb2>
    2f2a:	3e c0       	rjmp	.+124    	; 0x2fa8 <STEPPER_process_pwm+0x12e>
    2f2c:	80 81       	ld	r24, Z
    2f2e:	8f 71       	andi	r24, 0x1F	; 31
    2f30:	80 83       	st	Z, r24
    2f32:	08 95       	ret
    2f34:	80 91 34 02 	lds	r24, 0x0234	; 0x800234 <STEPPER_params+0x8>
    2f38:	90 91 35 02 	lds	r25, 0x0235	; 0x800235 <STEPPER_params+0x9>
    2f3c:	c3 97       	sbiw	r24, 0x33	; 51
    2f3e:	a4 f5       	brge	.+104    	; 0x2fa8 <STEPPER_process_pwm+0x12e>
    2f40:	44 23       	and	r20, r20
    2f42:	d1 f0       	breq	.+52     	; 0x2f78 <STEPPER_process_pwm+0xfe>
    2f44:	20 91 34 02 	lds	r18, 0x0234	; 0x800234 <STEPPER_params+0x8>
    2f48:	30 91 35 02 	lds	r19, 0x0235	; 0x800235 <STEPPER_params+0x9>
    2f4c:	80 e6       	ldi	r24, 0x60	; 96
    2f4e:	90 e0       	ldi	r25, 0x00	; 0
    2f50:	ac 01       	movw	r20, r24
    2f52:	24 9f       	mul	r18, r20
    2f54:	c0 01       	movw	r24, r0
    2f56:	25 9f       	mul	r18, r21
    2f58:	90 0d       	add	r25, r0
    2f5a:	34 9f       	mul	r19, r20
    2f5c:	90 0d       	add	r25, r0
    2f5e:	11 24       	eor	r1, r1
    2f60:	88 0f       	add	r24, r24
    2f62:	89 2f       	mov	r24, r25
    2f64:	88 1f       	adc	r24, r24
    2f66:	99 0b       	sbc	r25, r25
    2f68:	90 93 49 02 	sts	0x0249, r25	; 0x800249 <STEPPER_params+0x1d>
    2f6c:	80 93 48 02 	sts	0x0248, r24	; 0x800248 <STEPPER_params+0x1c>
    2f70:	81 e0       	ldi	r24, 0x01	; 1
    2f72:	80 93 dc 01 	sts	0x01DC, r24	; 0x8001dc <processing_right_pwm.1640>
    2f76:	08 95       	ret
    2f78:	80 91 dc 01 	lds	r24, 0x01DC	; 0x8001dc <processing_right_pwm.1640>
    2f7c:	88 23       	and	r24, r24
    2f7e:	a1 f0       	breq	.+40     	; 0x2fa8 <STEPPER_process_pwm+0x12e>
    2f80:	80 91 48 02 	lds	r24, 0x0248	; 0x800248 <STEPPER_params+0x1c>
    2f84:	90 91 49 02 	lds	r25, 0x0249	; 0x800249 <STEPPER_params+0x1d>
    2f88:	01 97       	sbiw	r24, 0x01	; 1
    2f8a:	90 93 49 02 	sts	0x0249, r25	; 0x800249 <STEPPER_params+0x1d>
    2f8e:	80 93 48 02 	sts	0x0248, r24	; 0x800248 <STEPPER_params+0x1c>
    2f92:	80 91 48 02 	lds	r24, 0x0248	; 0x800248 <STEPPER_params+0x1c>
    2f96:	90 91 49 02 	lds	r25, 0x0249	; 0x800249 <STEPPER_params+0x1d>
    2f9a:	89 2b       	or	r24, r25
    2f9c:	29 f4       	brne	.+10     	; 0x2fa8 <STEPPER_process_pwm+0x12e>
    2f9e:	80 81       	ld	r24, Z
    2fa0:	8f 71       	andi	r24, 0x1F	; 31
    2fa2:	80 83       	st	Z, r24
    2fa4:	10 92 dc 01 	sts	0x01DC, r1	; 0x8001dc <processing_right_pwm.1640>
    2fa8:	08 95       	ret

00002faa <info_display>:
    2faa:	cf 93       	push	r28
    2fac:	df 93       	push	r29
    2fae:	fc 01       	movw	r30, r24
    2fb0:	30 81       	ld	r19, Z
    2fb2:	20 91 07 02 	lds	r18, 0x0207	; 0x800207 <previous_state.3636>
    2fb6:	32 13       	cpse	r19, r18
    2fb8:	03 c0       	rjmp	.+6      	; 0x2fc0 <info_display+0x16>
    2fba:	20 81       	ld	r18, Z
    2fbc:	21 11       	cpse	r18, r1
    2fbe:	1e c0       	rjmp	.+60     	; 0x2ffc <info_display+0x52>
    2fc0:	ec 01       	movw	r28, r24
    2fc2:	0e 94 a8 03 	call	0x750	; 0x750 <LCD_clear>
    2fc6:	88 81       	ld	r24, Y
    2fc8:	81 30       	cpi	r24, 0x01	; 1
    2fca:	59 f0       	breq	.+22     	; 0x2fe2 <info_display+0x38>
    2fcc:	38 f0       	brcs	.+14     	; 0x2fdc <info_display+0x32>
    2fce:	82 30       	cpi	r24, 0x02	; 2
    2fd0:	59 f0       	breq	.+22     	; 0x2fe8 <info_display+0x3e>
    2fd2:	83 30       	cpi	r24, 0x03	; 3
    2fd4:	61 f4       	brne	.+24     	; 0x2fee <info_display+0x44>
    2fd6:	89 e3       	ldi	r24, 0x39	; 57
    2fd8:	91 e0       	ldi	r25, 0x01	; 1
    2fda:	0b c0       	rjmp	.+22     	; 0x2ff2 <info_display+0x48>
    2fdc:	81 e2       	ldi	r24, 0x21	; 33
    2fde:	91 e0       	ldi	r25, 0x01	; 1
    2fe0:	08 c0       	rjmp	.+16     	; 0x2ff2 <info_display+0x48>
    2fe2:	8d e2       	ldi	r24, 0x2D	; 45
    2fe4:	91 e0       	ldi	r25, 0x01	; 1
    2fe6:	05 c0       	rjmp	.+10     	; 0x2ff2 <info_display+0x48>
    2fe8:	85 e4       	ldi	r24, 0x45	; 69
    2fea:	91 e0       	ldi	r25, 0x01	; 1
    2fec:	02 c0       	rjmp	.+4      	; 0x2ff2 <info_display+0x48>
    2fee:	8f e4       	ldi	r24, 0x4F	; 79
    2ff0:	91 e0       	ldi	r25, 0x01	; 1
    2ff2:	0e 94 63 26 	call	0x4cc6	; 0x4cc6 <puts>
    2ff6:	88 81       	ld	r24, Y
    2ff8:	80 93 07 02 	sts	0x0207, r24	; 0x800207 <previous_state.3636>
    2ffc:	df 91       	pop	r29
    2ffe:	cf 91       	pop	r28
    3000:	08 95       	ret

00003002 <compare_actions>:
    3002:	dc 01       	movw	r26, r24
    3004:	fb 01       	movw	r30, r22
    3006:	9c 91       	ld	r25, X
    3008:	80 81       	ld	r24, Z
    300a:	98 13       	cpse	r25, r24
    300c:	25 c0       	rjmp	.+74     	; 0x3058 <compare_actions+0x56>
    300e:	11 96       	adiw	r26, 0x01	; 1
    3010:	2d 91       	ld	r18, X+
    3012:	3c 91       	ld	r19, X
    3014:	12 97       	sbiw	r26, 0x02	; 2
    3016:	81 81       	ldd	r24, Z+1	; 0x01
    3018:	92 81       	ldd	r25, Z+2	; 0x02
    301a:	28 17       	cp	r18, r24
    301c:	39 07       	cpc	r19, r25
    301e:	e1 f4       	brne	.+56     	; 0x3058 <compare_actions+0x56>
    3020:	13 96       	adiw	r26, 0x03	; 3
    3022:	2d 91       	ld	r18, X+
    3024:	3c 91       	ld	r19, X
    3026:	14 97       	sbiw	r26, 0x04	; 4
    3028:	83 81       	ldd	r24, Z+3	; 0x03
    302a:	94 81       	ldd	r25, Z+4	; 0x04
    302c:	28 17       	cp	r18, r24
    302e:	39 07       	cpc	r19, r25
    3030:	99 f4       	brne	.+38     	; 0x3058 <compare_actions+0x56>
    3032:	15 96       	adiw	r26, 0x05	; 5
    3034:	2d 91       	ld	r18, X+
    3036:	3c 91       	ld	r19, X
    3038:	16 97       	sbiw	r26, 0x06	; 6
    303a:	85 81       	ldd	r24, Z+5	; 0x05
    303c:	96 81       	ldd	r25, Z+6	; 0x06
    303e:	28 17       	cp	r18, r24
    3040:	39 07       	cpc	r19, r25
    3042:	51 f4       	brne	.+20     	; 0x3058 <compare_actions+0x56>
    3044:	17 96       	adiw	r26, 0x07	; 7
    3046:	4d 91       	ld	r20, X+
    3048:	5c 91       	ld	r21, X
    304a:	18 97       	sbiw	r26, 0x08	; 8
    304c:	27 81       	ldd	r18, Z+7	; 0x07
    304e:	30 85       	ldd	r19, Z+8	; 0x08
    3050:	81 e0       	ldi	r24, 0x01	; 1
    3052:	42 17       	cp	r20, r18
    3054:	53 07       	cpc	r21, r19
    3056:	09 f0       	breq	.+2      	; 0x305a <compare_actions+0x58>
    3058:	80 e0       	ldi	r24, 0x00	; 0
    305a:	08 95       	ret

0000305c <IR_sense>:
    305c:	cf 93       	push	r28
    305e:	df 93       	push	r29
    3060:	ec 01       	movw	r28, r24
    3062:	9b 01       	movw	r18, r22
    3064:	80 91 06 02 	lds	r24, 0x0206	; 0x800206 <timer_started.3652>
    3068:	81 11       	cpse	r24, r1
    306a:	0a c0       	rjmp	.+20     	; 0x3080 <IR_sense+0x24>
    306c:	41 e0       	ldi	r20, 0x01	; 1
    306e:	61 e0       	ldi	r22, 0x01	; 1
    3070:	8d ef       	ldi	r24, 0xFD	; 253
    3072:	91 e0       	ldi	r25, 0x01	; 1
    3074:	0e 94 78 0b 	call	0x16f0	; 0x16f0 <TMRSRVC_new>
    3078:	81 e0       	ldi	r24, 0x01	; 1
    307a:	80 93 06 02 	sts	0x0206, r24	; 0x800206 <timer_started.3652>
    307e:	11 c0       	rjmp	.+34     	; 0x30a2 <IR_sense+0x46>
    3080:	80 91 03 02 	lds	r24, 0x0203	; 0x800203 <sense_timer.3653+0x6>
    3084:	88 23       	and	r24, r24
    3086:	69 f0       	breq	.+26     	; 0x30a2 <IR_sense+0x46>
    3088:	80 e4       	ldi	r24, 0x40	; 64
    308a:	0e 94 cd 04 	call	0x99a	; 0x99a <LED_tog_pattern>
    308e:	80 e0       	ldi	r24, 0x00	; 0
    3090:	0e 94 80 0a 	call	0x1500	; 0x1500 <ATTINY_get_IR_state>
    3094:	88 83       	st	Y, r24
    3096:	81 e0       	ldi	r24, 0x01	; 1
    3098:	0e 94 80 0a 	call	0x1500	; 0x1500 <ATTINY_get_IR_state>
    309c:	89 83       	std	Y+1, r24	; 0x01
    309e:	10 92 03 02 	sts	0x0203, r1	; 0x800203 <sense_timer.3653+0x6>
    30a2:	df 91       	pop	r29
    30a4:	cf 91       	pop	r28
    30a6:	08 95       	ret

000030a8 <Photo_sense>:
    30a8:	cf 93       	push	r28
    30aa:	df 93       	push	r29
    30ac:	ec 01       	movw	r28, r24
    30ae:	9b 01       	movw	r18, r22
    30b0:	80 91 fc 01 	lds	r24, 0x01FC	; 0x8001fc <timer_started.3658>
    30b4:	81 11       	cpse	r24, r1
    30b6:	0a c0       	rjmp	.+20     	; 0x30cc <Photo_sense+0x24>
    30b8:	41 e0       	ldi	r20, 0x01	; 1
    30ba:	61 e0       	ldi	r22, 0x01	; 1
    30bc:	83 ef       	ldi	r24, 0xF3	; 243
    30be:	91 e0       	ldi	r25, 0x01	; 1
    30c0:	0e 94 78 0b 	call	0x16f0	; 0x16f0 <TMRSRVC_new>
    30c4:	81 e0       	ldi	r24, 0x01	; 1
    30c6:	80 93 fc 01 	sts	0x01FC, r24	; 0x8001fc <timer_started.3658>
    30ca:	3d c0       	rjmp	.+122    	; 0x3146 <Photo_sense+0x9e>
    30cc:	80 91 f9 01 	lds	r24, 0x01F9	; 0x8001f9 <sense_timer.3659+0x6>
    30d0:	88 23       	and	r24, r24
    30d2:	c9 f1       	breq	.+114    	; 0x3146 <Photo_sense+0x9e>
    30d4:	80 e2       	ldi	r24, 0x20	; 32
    30d6:	0e 94 cd 04 	call	0x99a	; 0x99a <LED_tog_pattern>
    30da:	86 e0       	ldi	r24, 0x06	; 6
    30dc:	0e 94 5d 03 	call	0x6ba	; 0x6ba <ADC_set_channel>
    30e0:	0e 94 35 03 	call	0x66a	; 0x66a <ADC_sample>
    30e4:	bc 01       	movw	r22, r24
    30e6:	80 e0       	ldi	r24, 0x00	; 0
    30e8:	90 e0       	ldi	r25, 0x00	; 0
    30ea:	0e 94 a7 20 	call	0x414e	; 0x414e <__floatunsisf>
    30ee:	20 e0       	ldi	r18, 0x00	; 0
    30f0:	30 e0       	ldi	r19, 0x00	; 0
    30f2:	40 ea       	ldi	r20, 0xA0	; 160
    30f4:	50 e4       	ldi	r21, 0x40	; 64
    30f6:	0e 94 9b 21 	call	0x4336	; 0x4336 <__mulsf3>
    30fa:	20 e0       	ldi	r18, 0x00	; 0
    30fc:	30 e0       	ldi	r19, 0x00	; 0
    30fe:	40 e8       	ldi	r20, 0x80	; 128
    3100:	5a e3       	ldi	r21, 0x3A	; 58
    3102:	0e 94 9b 21 	call	0x4336	; 0x4336 <__mulsf3>
    3106:	6a 83       	std	Y+2, r22	; 0x02
    3108:	7b 83       	std	Y+3, r23	; 0x03
    310a:	8c 83       	std	Y+4, r24	; 0x04
    310c:	9d 83       	std	Y+5, r25	; 0x05
    310e:	84 e0       	ldi	r24, 0x04	; 4
    3110:	0e 94 5d 03 	call	0x6ba	; 0x6ba <ADC_set_channel>
    3114:	0e 94 35 03 	call	0x66a	; 0x66a <ADC_sample>
    3118:	bc 01       	movw	r22, r24
    311a:	80 e0       	ldi	r24, 0x00	; 0
    311c:	90 e0       	ldi	r25, 0x00	; 0
    311e:	0e 94 a7 20 	call	0x414e	; 0x414e <__floatunsisf>
    3122:	20 e0       	ldi	r18, 0x00	; 0
    3124:	30 e0       	ldi	r19, 0x00	; 0
    3126:	40 ea       	ldi	r20, 0xA0	; 160
    3128:	50 e4       	ldi	r21, 0x40	; 64
    312a:	0e 94 9b 21 	call	0x4336	; 0x4336 <__mulsf3>
    312e:	20 e0       	ldi	r18, 0x00	; 0
    3130:	30 e0       	ldi	r19, 0x00	; 0
    3132:	40 e8       	ldi	r20, 0x80	; 128
    3134:	5a e3       	ldi	r21, 0x3A	; 58
    3136:	0e 94 9b 21 	call	0x4336	; 0x4336 <__mulsf3>
    313a:	6e 83       	std	Y+6, r22	; 0x06
    313c:	7f 83       	std	Y+7, r23	; 0x07
    313e:	88 87       	std	Y+8, r24	; 0x08
    3140:	99 87       	std	Y+9, r25	; 0x09
    3142:	10 92 f9 01 	sts	0x01F9, r1	; 0x8001f9 <sense_timer.3659+0x6>
    3146:	df 91       	pop	r29
    3148:	cf 91       	pop	r28
    314a:	08 95       	ret

0000314c <Sonar_sense>:
    314c:	cf 93       	push	r28
    314e:	df 93       	push	r29
    3150:	ec 01       	movw	r28, r24
    3152:	9b 01       	movw	r18, r22
    3154:	80 91 f2 01 	lds	r24, 0x01F2	; 0x8001f2 <timer_started.3665>
    3158:	81 11       	cpse	r24, r1
    315a:	0a c0       	rjmp	.+20     	; 0x3170 <Sonar_sense+0x24>
    315c:	41 e0       	ldi	r20, 0x01	; 1
    315e:	61 e0       	ldi	r22, 0x01	; 1
    3160:	89 ee       	ldi	r24, 0xE9	; 233
    3162:	91 e0       	ldi	r25, 0x01	; 1
    3164:	0e 94 78 0b 	call	0x16f0	; 0x16f0 <TMRSRVC_new>
    3168:	81 e0       	ldi	r24, 0x01	; 1
    316a:	80 93 f2 01 	sts	0x01F2, r24	; 0x8001f2 <timer_started.3665>
    316e:	21 c0       	rjmp	.+66     	; 0x31b2 <Sonar_sense+0x66>
    3170:	80 91 ef 01 	lds	r24, 0x01EF	; 0x8001ef <sense_timer.3666+0x6>
    3174:	88 23       	and	r24, r24
    3176:	e9 f0       	breq	.+58     	; 0x31b2 <Sonar_sense+0x66>
    3178:	84 e6       	ldi	r24, 0x64	; 100
    317a:	90 e0       	ldi	r25, 0x00	; 0
    317c:	0e 94 4b 0b 	call	0x1696	; 0x1696 <TMRSRVC_delay>
    3180:	0e 94 44 0c 	call	0x1888	; 0x1888 <USONIC_ping>
    3184:	9c 01       	movw	r18, r24
    3186:	aa e0       	ldi	r26, 0x0A	; 10
    3188:	b0 e0       	ldi	r27, 0x00	; 0
    318a:	0e 94 bf 23 	call	0x477e	; 0x477e <__umulhisi3>
    318e:	0e 94 a7 20 	call	0x414e	; 0x414e <__floatunsisf>
    3192:	27 ee       	ldi	r18, 0xE7	; 231
    3194:	3a e3       	ldi	r19, 0x3A	; 58
    3196:	4d e8       	ldi	r20, 0x8D	; 141
    3198:	5c e3       	ldi	r21, 0x3C	; 60
    319a:	0e 94 9b 21 	call	0x4336	; 0x4336 <__mulsf3>
    319e:	6a 8b       	std	Y+18, r22	; 0x12
    31a0:	7b 8b       	std	Y+19, r23	; 0x13
    31a2:	8c 8b       	std	Y+20, r24	; 0x14
    31a4:	9d 8b       	std	Y+21, r25	; 0x15
    31a6:	84 e6       	ldi	r24, 0x64	; 100
    31a8:	90 e0       	ldi	r25, 0x00	; 0
    31aa:	0e 94 4b 0b 	call	0x1696	; 0x1696 <TMRSRVC_delay>
    31ae:	10 92 ef 01 	sts	0x01EF, r1	; 0x8001ef <sense_timer.3666+0x6>
    31b2:	df 91       	pop	r29
    31b4:	cf 91       	pop	r28
    31b6:	08 95       	ret

000031b8 <Photo_init>:
    31b8:	cf 93       	push	r28
    31ba:	df 93       	push	r29
    31bc:	ec 01       	movw	r28, r24
    31be:	80 e2       	ldi	r24, 0x20	; 32
    31c0:	0e 94 cd 04 	call	0x99a	; 0x99a <LED_tog_pattern>
    31c4:	86 e0       	ldi	r24, 0x06	; 6
    31c6:	0e 94 5d 03 	call	0x6ba	; 0x6ba <ADC_set_channel>
    31ca:	0e 94 35 03 	call	0x66a	; 0x66a <ADC_sample>
    31ce:	bc 01       	movw	r22, r24
    31d0:	80 e0       	ldi	r24, 0x00	; 0
    31d2:	90 e0       	ldi	r25, 0x00	; 0
    31d4:	0e 94 a7 20 	call	0x414e	; 0x414e <__floatunsisf>
    31d8:	20 e0       	ldi	r18, 0x00	; 0
    31da:	30 e0       	ldi	r19, 0x00	; 0
    31dc:	40 ea       	ldi	r20, 0xA0	; 160
    31de:	50 e4       	ldi	r21, 0x40	; 64
    31e0:	0e 94 9b 21 	call	0x4336	; 0x4336 <__mulsf3>
    31e4:	20 e0       	ldi	r18, 0x00	; 0
    31e6:	30 e0       	ldi	r19, 0x00	; 0
    31e8:	40 e8       	ldi	r20, 0x80	; 128
    31ea:	5a e3       	ldi	r21, 0x3A	; 58
    31ec:	0e 94 9b 21 	call	0x4336	; 0x4336 <__mulsf3>
    31f0:	6a 87       	std	Y+10, r22	; 0x0a
    31f2:	7b 87       	std	Y+11, r23	; 0x0b
    31f4:	8c 87       	std	Y+12, r24	; 0x0c
    31f6:	9d 87       	std	Y+13, r25	; 0x0d
    31f8:	84 e0       	ldi	r24, 0x04	; 4
    31fa:	0e 94 5d 03 	call	0x6ba	; 0x6ba <ADC_set_channel>
    31fe:	0e 94 35 03 	call	0x66a	; 0x66a <ADC_sample>
    3202:	bc 01       	movw	r22, r24
    3204:	80 e0       	ldi	r24, 0x00	; 0
    3206:	90 e0       	ldi	r25, 0x00	; 0
    3208:	0e 94 a7 20 	call	0x414e	; 0x414e <__floatunsisf>
    320c:	20 e0       	ldi	r18, 0x00	; 0
    320e:	30 e0       	ldi	r19, 0x00	; 0
    3210:	40 ea       	ldi	r20, 0xA0	; 160
    3212:	50 e4       	ldi	r21, 0x40	; 64
    3214:	0e 94 9b 21 	call	0x4336	; 0x4336 <__mulsf3>
    3218:	20 e0       	ldi	r18, 0x00	; 0
    321a:	30 e0       	ldi	r19, 0x00	; 0
    321c:	40 e8       	ldi	r20, 0x80	; 128
    321e:	5a e3       	ldi	r21, 0x3A	; 58
    3220:	0e 94 9b 21 	call	0x4336	; 0x4336 <__mulsf3>
    3224:	6e 87       	std	Y+14, r22	; 0x0e
    3226:	7f 87       	std	Y+15, r23	; 0x0f
    3228:	88 8b       	std	Y+16, r24	; 0x10
    322a:	99 8b       	std	Y+17, r25	; 0x11
    322c:	df 91       	pop	r29
    322e:	cf 91       	pop	r28
    3230:	08 95       	ret

00003232 <Cruise>:
    3232:	fc 01       	movw	r30, r24
    3234:	81 e0       	ldi	r24, 0x01	; 1
    3236:	80 83       	st	Z, r24
    3238:	88 ec       	ldi	r24, 0xC8	; 200
    323a:	90 e0       	ldi	r25, 0x00	; 0
    323c:	92 83       	std	Z+2, r25	; 0x02
    323e:	81 83       	std	Z+1, r24	; 0x01
    3240:	94 83       	std	Z+4, r25	; 0x04
    3242:	83 83       	std	Z+3, r24	; 0x03
    3244:	80 e9       	ldi	r24, 0x90	; 144
    3246:	91 e0       	ldi	r25, 0x01	; 1
    3248:	96 83       	std	Z+6, r25	; 0x06
    324a:	85 83       	std	Z+5, r24	; 0x05
    324c:	90 87       	std	Z+8, r25	; 0x08
    324e:	87 83       	std	Z+7, r24	; 0x07
    3250:	08 95       	ret

00003252 <IR_avoid>:
    3252:	4f 92       	push	r4
    3254:	5f 92       	push	r5
    3256:	6f 92       	push	r6
    3258:	7f 92       	push	r7
    325a:	8f 92       	push	r8
    325c:	9f 92       	push	r9
    325e:	af 92       	push	r10
    3260:	bf 92       	push	r11
    3262:	cf 92       	push	r12
    3264:	df 92       	push	r13
    3266:	ef 92       	push	r14
    3268:	ff 92       	push	r15
    326a:	0f 93       	push	r16
    326c:	1f 93       	push	r17
    326e:	cf 93       	push	r28
    3270:	df 93       	push	r29
    3272:	ec 01       	movw	r28, r24
    3274:	3b 01       	movw	r6, r22
    3276:	fb 01       	movw	r30, r22
    3278:	d0 80       	ld	r13, Z
    327a:	f1 e0       	ldi	r31, 0x01	; 1
    327c:	df 12       	cpse	r13, r31
    327e:	53 c0       	rjmp	.+166    	; 0x3326 <IR_avoid+0xd4>
    3280:	e3 e0       	ldi	r30, 0x03	; 3
    3282:	9e 2e       	mov	r9, r30
    3284:	98 82       	st	Y, r9
    3286:	0e 94 a8 03 	call	0x750	; 0x750 <LCD_clear>
    328a:	89 e3       	ldi	r24, 0x39	; 57
    328c:	91 e0       	ldi	r25, 0x01	; 1
    328e:	0e 94 63 26 	call	0x4cc6	; 0x4cc6 <puts>
    3292:	60 e0       	ldi	r22, 0x00	; 0
    3294:	82 e0       	ldi	r24, 0x02	; 2
    3296:	0e 94 a2 09 	call	0x1344	; 0x1344 <STEPPER_stop>
    329a:	1f 92       	push	r1
    329c:	1f 92       	push	r1
    329e:	1f 92       	push	r1
    32a0:	df 92       	push	r13
    32a2:	f0 e9       	ldi	r31, 0x90	; 144
    32a4:	4f 2e       	mov	r4, r31
    32a6:	4f 92       	push	r4
    32a8:	1f 92       	push	r1
    32aa:	a8 ec       	ldi	r26, 0xC8	; 200
    32ac:	5a 2e       	mov	r5, r26
    32ae:	5f 92       	push	r5
    32b0:	1f 92       	push	r1
    32b2:	8a ef       	ldi	r24, 0xFA	; 250
    32b4:	8f 93       	push	r24
    32b6:	88 24       	eor	r8, r8
    32b8:	83 94       	inc	r8
    32ba:	a1 2c       	mov	r10, r1
    32bc:	b1 2c       	mov	r11, r1
    32be:	c1 2c       	mov	r12, r1
    32c0:	b0 e9       	ldi	r27, 0x90	; 144
    32c2:	eb 2e       	mov	r14, r27
    32c4:	ff 24       	eor	r15, r15
    32c6:	f3 94       	inc	r15
    32c8:	08 ec       	ldi	r16, 0xC8	; 200
    32ca:	10 e0       	ldi	r17, 0x00	; 0
    32cc:	2a ef       	ldi	r18, 0xFA	; 250
    32ce:	30 e0       	ldi	r19, 0x00	; 0
    32d0:	41 e0       	ldi	r20, 0x01	; 1
    32d2:	62 e0       	ldi	r22, 0x02	; 2
    32d4:	80 e0       	ldi	r24, 0x00	; 0
    32d6:	0e 94 47 06 	call	0xc8e	; 0xc8e <STEPPER_move>
    32da:	1f 92       	push	r1
    32dc:	1f 92       	push	r1
    32de:	1f 92       	push	r1
    32e0:	df 92       	push	r13
    32e2:	4f 92       	push	r4
    32e4:	1f 92       	push	r1
    32e6:	5f 92       	push	r5
    32e8:	1f 92       	push	r1
    32ea:	87 e8       	ldi	r24, 0x87	; 135
    32ec:	8f 93       	push	r24
    32ee:	27 e8       	ldi	r18, 0x87	; 135
    32f0:	30 e0       	ldi	r19, 0x00	; 0
    32f2:	40 e0       	ldi	r20, 0x00	; 0
    32f4:	62 e0       	ldi	r22, 0x02	; 2
    32f6:	80 e0       	ldi	r24, 0x00	; 0
    32f8:	0e 94 47 06 	call	0xc8e	; 0xc8e <STEPPER_move>
    32fc:	98 82       	st	Y, r9
    32fe:	88 ec       	ldi	r24, 0xC8	; 200
    3300:	90 e0       	ldi	r25, 0x00	; 0
    3302:	9a 83       	std	Y+2, r25	; 0x02
    3304:	89 83       	std	Y+1, r24	; 0x01
    3306:	9c 83       	std	Y+4, r25	; 0x04
    3308:	8b 83       	std	Y+3, r24	; 0x03
    330a:	80 e9       	ldi	r24, 0x90	; 144
    330c:	91 e0       	ldi	r25, 0x01	; 1
    330e:	9e 83       	std	Y+6, r25	; 0x06
    3310:	8d 83       	std	Y+5, r24	; 0x05
    3312:	98 87       	std	Y+8, r25	; 0x08
    3314:	8f 83       	std	Y+7, r24	; 0x07
    3316:	8d b7       	in	r24, 0x3d	; 61
    3318:	9e b7       	in	r25, 0x3e	; 62
    331a:	42 96       	adiw	r24, 0x12	; 18
    331c:	0f b6       	in	r0, 0x3f	; 63
    331e:	f8 94       	cli
    3320:	9e bf       	out	0x3e, r25	; 62
    3322:	0f be       	out	0x3f, r0	; 63
    3324:	8d bf       	out	0x3d, r24	; 61
    3326:	f3 01       	movw	r30, r6
    3328:	d1 80       	ldd	r13, Z+1	; 0x01
    332a:	f1 e0       	ldi	r31, 0x01	; 1
    332c:	df 12       	cpse	r13, r31
    332e:	54 c0       	rjmp	.+168    	; 0x33d8 <IR_avoid+0x186>
    3330:	43 e0       	ldi	r20, 0x03	; 3
    3332:	94 2e       	mov	r9, r20
    3334:	98 82       	st	Y, r9
    3336:	0e 94 a8 03 	call	0x750	; 0x750 <LCD_clear>
    333a:	89 e3       	ldi	r24, 0x39	; 57
    333c:	91 e0       	ldi	r25, 0x01	; 1
    333e:	0e 94 63 26 	call	0x4cc6	; 0x4cc6 <puts>
    3342:	60 e0       	ldi	r22, 0x00	; 0
    3344:	82 e0       	ldi	r24, 0x02	; 2
    3346:	0e 94 a2 09 	call	0x1344	; 0x1344 <STEPPER_stop>
    334a:	1f 92       	push	r1
    334c:	1f 92       	push	r1
    334e:	1f 92       	push	r1
    3350:	df 92       	push	r13
    3352:	50 e9       	ldi	r21, 0x90	; 144
    3354:	45 2e       	mov	r4, r21
    3356:	4f 92       	push	r4
    3358:	1f 92       	push	r1
    335a:	68 ec       	ldi	r22, 0xC8	; 200
    335c:	56 2e       	mov	r5, r22
    335e:	5f 92       	push	r5
    3360:	1f 92       	push	r1
    3362:	8a ef       	ldi	r24, 0xFA	; 250
    3364:	8f 93       	push	r24
    3366:	88 24       	eor	r8, r8
    3368:	83 94       	inc	r8
    336a:	a1 2c       	mov	r10, r1
    336c:	b1 2c       	mov	r11, r1
    336e:	c1 2c       	mov	r12, r1
    3370:	70 e9       	ldi	r23, 0x90	; 144
    3372:	e7 2e       	mov	r14, r23
    3374:	ff 24       	eor	r15, r15
    3376:	f3 94       	inc	r15
    3378:	08 ec       	ldi	r16, 0xC8	; 200
    337a:	10 e0       	ldi	r17, 0x00	; 0
    337c:	2a ef       	ldi	r18, 0xFA	; 250
    337e:	30 e0       	ldi	r19, 0x00	; 0
    3380:	41 e0       	ldi	r20, 0x01	; 1
    3382:	62 e0       	ldi	r22, 0x02	; 2
    3384:	80 e0       	ldi	r24, 0x00	; 0
    3386:	0e 94 47 06 	call	0xc8e	; 0xc8e <STEPPER_move>
    338a:	1f 92       	push	r1
    338c:	1f 92       	push	r1
    338e:	1f 92       	push	r1
    3390:	df 92       	push	r13
    3392:	4f 92       	push	r4
    3394:	1f 92       	push	r1
    3396:	5f 92       	push	r5
    3398:	1f 92       	push	r1
    339a:	87 e8       	ldi	r24, 0x87	; 135
    339c:	8f 93       	push	r24
    339e:	81 2c       	mov	r8, r1
    33a0:	27 e8       	ldi	r18, 0x87	; 135
    33a2:	30 e0       	ldi	r19, 0x00	; 0
    33a4:	41 e0       	ldi	r20, 0x01	; 1
    33a6:	62 e0       	ldi	r22, 0x02	; 2
    33a8:	80 e0       	ldi	r24, 0x00	; 0
    33aa:	0e 94 47 06 	call	0xc8e	; 0xc8e <STEPPER_move>
    33ae:	98 82       	st	Y, r9
    33b0:	88 ec       	ldi	r24, 0xC8	; 200
    33b2:	90 e0       	ldi	r25, 0x00	; 0
    33b4:	9a 83       	std	Y+2, r25	; 0x02
    33b6:	89 83       	std	Y+1, r24	; 0x01
    33b8:	9c 83       	std	Y+4, r25	; 0x04
    33ba:	8b 83       	std	Y+3, r24	; 0x03
    33bc:	80 e9       	ldi	r24, 0x90	; 144
    33be:	91 e0       	ldi	r25, 0x01	; 1
    33c0:	9e 83       	std	Y+6, r25	; 0x06
    33c2:	8d 83       	std	Y+5, r24	; 0x05
    33c4:	98 87       	std	Y+8, r25	; 0x08
    33c6:	8f 83       	std	Y+7, r24	; 0x07
    33c8:	8d b7       	in	r24, 0x3d	; 61
    33ca:	9e b7       	in	r25, 0x3e	; 62
    33cc:	42 96       	adiw	r24, 0x12	; 18
    33ce:	0f b6       	in	r0, 0x3f	; 63
    33d0:	f8 94       	cli
    33d2:	9e bf       	out	0x3e, r25	; 62
    33d4:	0f be       	out	0x3f, r0	; 63
    33d6:	8d bf       	out	0x3d, r24	; 61
    33d8:	f3 01       	movw	r30, r6
    33da:	81 81       	ldd	r24, Z+1	; 0x01
    33dc:	81 30       	cpi	r24, 0x01	; 1
    33de:	09 f0       	breq	.+2      	; 0x33e2 <IR_avoid+0x190>
    33e0:	58 c0       	rjmp	.+176    	; 0x3492 <IR_avoid+0x240>
    33e2:	d0 80       	ld	r13, Z
    33e4:	f1 e0       	ldi	r31, 0x01	; 1
    33e6:	df 12       	cpse	r13, r31
    33e8:	54 c0       	rjmp	.+168    	; 0x3492 <IR_avoid+0x240>
    33ea:	83 e0       	ldi	r24, 0x03	; 3
    33ec:	78 2e       	mov	r7, r24
    33ee:	78 82       	st	Y, r7
    33f0:	0e 94 a8 03 	call	0x750	; 0x750 <LCD_clear>
    33f4:	89 e3       	ldi	r24, 0x39	; 57
    33f6:	91 e0       	ldi	r25, 0x01	; 1
    33f8:	0e 94 63 26 	call	0x4cc6	; 0x4cc6 <puts>
    33fc:	60 e0       	ldi	r22, 0x00	; 0
    33fe:	82 e0       	ldi	r24, 0x02	; 2
    3400:	0e 94 a2 09 	call	0x1344	; 0x1344 <STEPPER_stop>
    3404:	1f 92       	push	r1
    3406:	1f 92       	push	r1
    3408:	1f 92       	push	r1
    340a:	df 92       	push	r13
    340c:	90 e9       	ldi	r25, 0x90	; 144
    340e:	99 2e       	mov	r9, r25
    3410:	9f 92       	push	r9
    3412:	1f 92       	push	r1
    3414:	28 ec       	ldi	r18, 0xC8	; 200
    3416:	62 2e       	mov	r6, r18
    3418:	6f 92       	push	r6
    341a:	df 92       	push	r13
    341c:	84 ef       	ldi	r24, 0xF4	; 244
    341e:	8f 93       	push	r24
    3420:	88 24       	eor	r8, r8
    3422:	83 94       	inc	r8
    3424:	a1 2c       	mov	r10, r1
    3426:	b1 2c       	mov	r11, r1
    3428:	c1 2c       	mov	r12, r1
    342a:	30 e9       	ldi	r19, 0x90	; 144
    342c:	e3 2e       	mov	r14, r19
    342e:	ff 24       	eor	r15, r15
    3430:	f3 94       	inc	r15
    3432:	08 ec       	ldi	r16, 0xC8	; 200
    3434:	10 e0       	ldi	r17, 0x00	; 0
    3436:	24 ef       	ldi	r18, 0xF4	; 244
    3438:	31 e0       	ldi	r19, 0x01	; 1
    343a:	41 e0       	ldi	r20, 0x01	; 1
    343c:	62 e0       	ldi	r22, 0x02	; 2
    343e:	80 e0       	ldi	r24, 0x00	; 0
    3440:	0e 94 47 06 	call	0xc8e	; 0xc8e <STEPPER_move>
    3444:	1f 92       	push	r1
    3446:	1f 92       	push	r1
    3448:	1f 92       	push	r1
    344a:	df 92       	push	r13
    344c:	9f 92       	push	r9
    344e:	1f 92       	push	r1
    3450:	6f 92       	push	r6
    3452:	1f 92       	push	r1
    3454:	8f ea       	ldi	r24, 0xAF	; 175
    3456:	8f 93       	push	r24
    3458:	81 2c       	mov	r8, r1
    345a:	2f ea       	ldi	r18, 0xAF	; 175
    345c:	30 e0       	ldi	r19, 0x00	; 0
    345e:	41 e0       	ldi	r20, 0x01	; 1
    3460:	62 e0       	ldi	r22, 0x02	; 2
    3462:	80 e0       	ldi	r24, 0x00	; 0
    3464:	0e 94 47 06 	call	0xc8e	; 0xc8e <STEPPER_move>
    3468:	78 82       	st	Y, r7
    346a:	88 ec       	ldi	r24, 0xC8	; 200
    346c:	90 e0       	ldi	r25, 0x00	; 0
    346e:	9a 83       	std	Y+2, r25	; 0x02
    3470:	89 83       	std	Y+1, r24	; 0x01
    3472:	9c 83       	std	Y+4, r25	; 0x04
    3474:	8b 83       	std	Y+3, r24	; 0x03
    3476:	80 e9       	ldi	r24, 0x90	; 144
    3478:	91 e0       	ldi	r25, 0x01	; 1
    347a:	9e 83       	std	Y+6, r25	; 0x06
    347c:	8d 83       	std	Y+5, r24	; 0x05
    347e:	98 87       	std	Y+8, r25	; 0x08
    3480:	8f 83       	std	Y+7, r24	; 0x07
    3482:	8d b7       	in	r24, 0x3d	; 61
    3484:	9e b7       	in	r25, 0x3e	; 62
    3486:	42 96       	adiw	r24, 0x12	; 18
    3488:	0f b6       	in	r0, 0x3f	; 63
    348a:	f8 94       	cli
    348c:	9e bf       	out	0x3e, r25	; 62
    348e:	0f be       	out	0x3f, r0	; 63
    3490:	8d bf       	out	0x3d, r24	; 61
    3492:	df 91       	pop	r29
    3494:	cf 91       	pop	r28
    3496:	1f 91       	pop	r17
    3498:	0f 91       	pop	r16
    349a:	ff 90       	pop	r15
    349c:	ef 90       	pop	r14
    349e:	df 90       	pop	r13
    34a0:	cf 90       	pop	r12
    34a2:	bf 90       	pop	r11
    34a4:	af 90       	pop	r10
    34a6:	9f 90       	pop	r9
    34a8:	8f 90       	pop	r8
    34aa:	7f 90       	pop	r7
    34ac:	6f 90       	pop	r6
    34ae:	5f 90       	pop	r5
    34b0:	4f 90       	pop	r4
    34b2:	08 95       	ret

000034b4 <Light_Follow>:
    34b4:	2f 92       	push	r2
    34b6:	3f 92       	push	r3
    34b8:	4f 92       	push	r4
    34ba:	5f 92       	push	r5
    34bc:	6f 92       	push	r6
    34be:	7f 92       	push	r7
    34c0:	8f 92       	push	r8
    34c2:	9f 92       	push	r9
    34c4:	af 92       	push	r10
    34c6:	bf 92       	push	r11
    34c8:	cf 92       	push	r12
    34ca:	df 92       	push	r13
    34cc:	ef 92       	push	r14
    34ce:	ff 92       	push	r15
    34d0:	0f 93       	push	r16
    34d2:	1f 93       	push	r17
    34d4:	cf 93       	push	r28
    34d6:	df 93       	push	r29
    34d8:	cd b7       	in	r28, 0x3d	; 61
    34da:	de b7       	in	r29, 0x3e	; 62
    34dc:	28 97       	sbiw	r28, 0x08	; 8
    34de:	0f b6       	in	r0, 0x3f	; 63
    34e0:	f8 94       	cli
    34e2:	de bf       	out	0x3e, r29	; 62
    34e4:	0f be       	out	0x3f, r0	; 63
    34e6:	cd bf       	out	0x3d, r28	; 61
    34e8:	8c 01       	movw	r16, r24
    34ea:	1b 01       	movw	r2, r22
    34ec:	db 01       	movw	r26, r22
    34ee:	1a 96       	adiw	r26, 0x0a	; 10
    34f0:	6d 91       	ld	r22, X+
    34f2:	7d 91       	ld	r23, X+
    34f4:	8d 91       	ld	r24, X+
    34f6:	9c 91       	ld	r25, X
    34f8:	1d 97       	sbiw	r26, 0x0d	; 13
    34fa:	1e 96       	adiw	r26, 0x0e	; 14
    34fc:	2d 91       	ld	r18, X+
    34fe:	3d 91       	ld	r19, X+
    3500:	4d 91       	ld	r20, X+
    3502:	5c 91       	ld	r21, X
    3504:	51 97       	sbiw	r26, 0x11	; 17
    3506:	1a 96       	adiw	r26, 0x0a	; 10
    3508:	8d 90       	ld	r8, X+
    350a:	9d 90       	ld	r9, X+
    350c:	ad 90       	ld	r10, X+
    350e:	bc 90       	ld	r11, X
    3510:	1d 97       	sbiw	r26, 0x0d	; 13
    3512:	1e 96       	adiw	r26, 0x0e	; 14
    3514:	4d 90       	ld	r4, X+
    3516:	5d 90       	ld	r5, X+
    3518:	6d 90       	ld	r6, X+
    351a:	7c 90       	ld	r7, X
    351c:	51 97       	sbiw	r26, 0x11	; 17
    351e:	0e 94 8e 1f 	call	0x3f1c	; 0x3f1c <__addsf3>
    3522:	20 e0       	ldi	r18, 0x00	; 0
    3524:	30 e0       	ldi	r19, 0x00	; 0
    3526:	40 e0       	ldi	r20, 0x00	; 0
    3528:	5f e3       	ldi	r21, 0x3F	; 63
    352a:	0e 94 9b 21 	call	0x4336	; 0x4336 <__mulsf3>
    352e:	9b 01       	movw	r18, r22
    3530:	ac 01       	movw	r20, r24
    3532:	60 e0       	ldi	r22, 0x00	; 0
    3534:	70 e0       	ldi	r23, 0x00	; 0
    3536:	80 ea       	ldi	r24, 0xA0	; 160
    3538:	90 e4       	ldi	r25, 0x40	; 64
    353a:	0e 94 8d 1f 	call	0x3f1a	; 0x3f1a <__subsf3>
    353e:	2d ec       	ldi	r18, 0xCD	; 205
    3540:	3c ec       	ldi	r19, 0xCC	; 204
    3542:	4c e4       	ldi	r20, 0x4C	; 76
    3544:	5e e3       	ldi	r21, 0x3E	; 62
    3546:	0e 94 9b 21 	call	0x4336	; 0x4336 <__mulsf3>
    354a:	6b 01       	movw	r12, r22
    354c:	7c 01       	movw	r14, r24
    354e:	a3 01       	movw	r20, r6
    3550:	92 01       	movw	r18, r4
    3552:	c5 01       	movw	r24, r10
    3554:	b4 01       	movw	r22, r8
    3556:	0e 94 8e 1f 	call	0x3f1c	; 0x3f1c <__addsf3>
    355a:	20 e0       	ldi	r18, 0x00	; 0
    355c:	30 e0       	ldi	r19, 0x00	; 0
    355e:	40 e0       	ldi	r20, 0x00	; 0
    3560:	5f e3       	ldi	r21, 0x3F	; 63
    3562:	0e 94 9b 21 	call	0x4336	; 0x4336 <__mulsf3>
    3566:	9b 01       	movw	r18, r22
    3568:	ac 01       	movw	r20, r24
    356a:	c7 01       	movw	r24, r14
    356c:	b6 01       	movw	r22, r12
    356e:	0e 94 8e 1f 	call	0x3f1c	; 0x3f1c <__addsf3>
    3572:	2b 01       	movw	r4, r22
    3574:	3c 01       	movw	r6, r24
    3576:	f1 01       	movw	r30, r2
    3578:	62 81       	ldd	r22, Z+2	; 0x02
    357a:	73 81       	ldd	r23, Z+3	; 0x03
    357c:	84 81       	ldd	r24, Z+4	; 0x04
    357e:	95 81       	ldd	r25, Z+5	; 0x05
    3580:	22 85       	ldd	r18, Z+10	; 0x0a
    3582:	33 85       	ldd	r19, Z+11	; 0x0b
    3584:	44 85       	ldd	r20, Z+12	; 0x0c
    3586:	55 85       	ldd	r21, Z+13	; 0x0d
    3588:	0e 94 8d 1f 	call	0x3f1a	; 0x3f1a <__subsf3>
    358c:	6b 01       	movw	r12, r22
    358e:	7c 01       	movw	r14, r24
    3590:	d1 01       	movw	r26, r2
    3592:	16 96       	adiw	r26, 0x06	; 6
    3594:	6d 91       	ld	r22, X+
    3596:	7d 91       	ld	r23, X+
    3598:	8d 91       	ld	r24, X+
    359a:	9c 91       	ld	r25, X
    359c:	19 97       	sbiw	r26, 0x09	; 9
    359e:	1e 96       	adiw	r26, 0x0e	; 14
    35a0:	2d 91       	ld	r18, X+
    35a2:	3d 91       	ld	r19, X+
    35a4:	4d 91       	ld	r20, X+
    35a6:	5c 91       	ld	r21, X
    35a8:	51 97       	sbiw	r26, 0x11	; 17
    35aa:	0e 94 8d 1f 	call	0x3f1a	; 0x3f1a <__subsf3>
    35ae:	4b 01       	movw	r8, r22
    35b0:	5c 01       	movw	r10, r24
    35b2:	20 e0       	ldi	r18, 0x00	; 0
    35b4:	30 e0       	ldi	r19, 0x00	; 0
    35b6:	a9 01       	movw	r20, r18
    35b8:	0e 94 fa 1f 	call	0x3ff4	; 0x3ff4 <__cmpsf2>
    35bc:	87 ff       	sbrs	r24, 7
    35be:	03 c0       	rjmp	.+6      	; 0x35c6 <Light_Follow+0x112>
    35c0:	81 2c       	mov	r8, r1
    35c2:	91 2c       	mov	r9, r1
    35c4:	54 01       	movw	r10, r8
    35c6:	20 e0       	ldi	r18, 0x00	; 0
    35c8:	30 e0       	ldi	r19, 0x00	; 0
    35ca:	a9 01       	movw	r20, r18
    35cc:	c7 01       	movw	r24, r14
    35ce:	b6 01       	movw	r22, r12
    35d0:	0e 94 fa 1f 	call	0x3ff4	; 0x3ff4 <__cmpsf2>
    35d4:	87 ff       	sbrs	r24, 7
    35d6:	03 c0       	rjmp	.+6      	; 0x35de <Light_Follow+0x12a>
    35d8:	c1 2c       	mov	r12, r1
    35da:	d1 2c       	mov	r13, r1
    35dc:	76 01       	movw	r14, r12
    35de:	d1 01       	movw	r26, r2
    35e0:	1a 96       	adiw	r26, 0x0a	; 10
    35e2:	8d 91       	ld	r24, X+
    35e4:	9d 91       	ld	r25, X+
    35e6:	0d 90       	ld	r0, X+
    35e8:	bc 91       	ld	r27, X
    35ea:	a0 2d       	mov	r26, r0
    35ec:	89 83       	std	Y+1, r24	; 0x01
    35ee:	9a 83       	std	Y+2, r25	; 0x02
    35f0:	ab 83       	std	Y+3, r26	; 0x03
    35f2:	bc 83       	std	Y+4, r27	; 0x04
    35f4:	d1 01       	movw	r26, r2
    35f6:	1e 96       	adiw	r26, 0x0e	; 14
    35f8:	8d 91       	ld	r24, X+
    35fa:	9d 91       	ld	r25, X+
    35fc:	0d 90       	ld	r0, X+
    35fe:	bc 91       	ld	r27, X
    3600:	a0 2d       	mov	r26, r0
    3602:	8d 83       	std	Y+5, r24	; 0x05
    3604:	9e 83       	std	Y+6, r25	; 0x06
    3606:	af 83       	std	Y+7, r26	; 0x07
    3608:	b8 87       	std	Y+8, r27	; 0x08
    360a:	f1 01       	movw	r30, r2
    360c:	62 81       	ldd	r22, Z+2	; 0x02
    360e:	73 81       	ldd	r23, Z+3	; 0x03
    3610:	84 81       	ldd	r24, Z+4	; 0x04
    3612:	95 81       	ldd	r25, Z+5	; 0x05
    3614:	26 81       	ldd	r18, Z+6	; 0x06
    3616:	37 81       	ldd	r19, Z+7	; 0x07
    3618:	40 85       	ldd	r20, Z+8	; 0x08
    361a:	51 85       	ldd	r21, Z+9	; 0x09
    361c:	0e 94 8e 1f 	call	0x3f1c	; 0x3f1c <__addsf3>
    3620:	20 e0       	ldi	r18, 0x00	; 0
    3622:	30 e0       	ldi	r19, 0x00	; 0
    3624:	40 e0       	ldi	r20, 0x00	; 0
    3626:	5f e3       	ldi	r21, 0x3F	; 63
    3628:	0e 94 9b 21 	call	0x4336	; 0x4336 <__mulsf3>
    362c:	a3 01       	movw	r20, r6
    362e:	92 01       	movw	r18, r4
    3630:	0e 94 59 21 	call	0x42b2	; 0x42b2 <__gesf2>
    3634:	18 16       	cp	r1, r24
    3636:	0c f0       	brlt	.+2      	; 0x363a <Light_Follow+0x186>
    3638:	55 c0       	rjmp	.+170    	; 0x36e4 <Light_Follow+0x230>
    363a:	2d 81       	ldd	r18, Y+5	; 0x05
    363c:	3e 81       	ldd	r19, Y+6	; 0x06
    363e:	4f 81       	ldd	r20, Y+7	; 0x07
    3640:	58 85       	ldd	r21, Y+8	; 0x08
    3642:	60 e0       	ldi	r22, 0x00	; 0
    3644:	70 e0       	ldi	r23, 0x00	; 0
    3646:	80 ea       	ldi	r24, 0xA0	; 160
    3648:	90 e4       	ldi	r25, 0x40	; 64
    364a:	0e 94 8d 1f 	call	0x3f1a	; 0x3f1a <__subsf3>
    364e:	9b 01       	movw	r18, r22
    3650:	ac 01       	movw	r20, r24
    3652:	c5 01       	movw	r24, r10
    3654:	b4 01       	movw	r22, r8
    3656:	0e 94 ff 1f 	call	0x3ffe	; 0x3ffe <__divsf3>
    365a:	4b 01       	movw	r8, r22
    365c:	5c 01       	movw	r10, r24
    365e:	29 81       	ldd	r18, Y+1	; 0x01
    3660:	3a 81       	ldd	r19, Y+2	; 0x02
    3662:	4b 81       	ldd	r20, Y+3	; 0x03
    3664:	5c 81       	ldd	r21, Y+4	; 0x04
    3666:	60 e0       	ldi	r22, 0x00	; 0
    3668:	70 e0       	ldi	r23, 0x00	; 0
    366a:	80 ea       	ldi	r24, 0xA0	; 160
    366c:	90 e4       	ldi	r25, 0x40	; 64
    366e:	0e 94 8d 1f 	call	0x3f1a	; 0x3f1a <__subsf3>
    3672:	9b 01       	movw	r18, r22
    3674:	ac 01       	movw	r20, r24
    3676:	c7 01       	movw	r24, r14
    3678:	b6 01       	movw	r22, r12
    367a:	0e 94 ff 1f 	call	0x3ffe	; 0x3ffe <__divsf3>
    367e:	9b 01       	movw	r18, r22
    3680:	ac 01       	movw	r20, r24
    3682:	c5 01       	movw	r24, r10
    3684:	b4 01       	movw	r22, r8
    3686:	0e 94 8d 1f 	call	0x3f1a	; 0x3f1a <__subsf3>
    368a:	6b 01       	movw	r12, r22
    368c:	7c 01       	movw	r14, r24
    368e:	82 e0       	ldi	r24, 0x02	; 2
    3690:	d8 01       	movw	r26, r16
    3692:	8c 93       	st	X, r24
    3694:	20 e0       	ldi	r18, 0x00	; 0
    3696:	30 e0       	ldi	r19, 0x00	; 0
    3698:	40 e8       	ldi	r20, 0x80	; 128
    369a:	5f e3       	ldi	r21, 0x3F	; 63
    369c:	c7 01       	movw	r24, r14
    369e:	b6 01       	movw	r22, r12
    36a0:	0e 94 8e 1f 	call	0x3f1c	; 0x3f1c <__addsf3>
    36a4:	20 e0       	ldi	r18, 0x00	; 0
    36a6:	30 e0       	ldi	r19, 0x00	; 0
    36a8:	48 e4       	ldi	r20, 0x48	; 72
    36aa:	53 e4       	ldi	r21, 0x43	; 67
    36ac:	0e 94 9b 21 	call	0x4336	; 0x4336 <__mulsf3>
    36b0:	0e 94 71 20 	call	0x40e2	; 0x40e2 <__fixsfsi>
    36b4:	f8 01       	movw	r30, r16
    36b6:	72 83       	std	Z+2, r23	; 0x02
    36b8:	61 83       	std	Z+1, r22	; 0x01
    36ba:	a7 01       	movw	r20, r14
    36bc:	96 01       	movw	r18, r12
    36be:	60 e0       	ldi	r22, 0x00	; 0
    36c0:	70 e0       	ldi	r23, 0x00	; 0
    36c2:	80 e8       	ldi	r24, 0x80	; 128
    36c4:	9f e3       	ldi	r25, 0x3F	; 63
    36c6:	0e 94 8d 1f 	call	0x3f1a	; 0x3f1a <__subsf3>
    36ca:	20 e0       	ldi	r18, 0x00	; 0
    36cc:	30 e0       	ldi	r19, 0x00	; 0
    36ce:	48 e4       	ldi	r20, 0x48	; 72
    36d0:	53 e4       	ldi	r21, 0x43	; 67
    36d2:	0e 94 9b 21 	call	0x4336	; 0x4336 <__mulsf3>
    36d6:	0e 94 71 20 	call	0x40e2	; 0x40e2 <__fixsfsi>
    36da:	d8 01       	movw	r26, r16
    36dc:	14 96       	adiw	r26, 0x04	; 4
    36de:	7c 93       	st	X, r23
    36e0:	6e 93       	st	-X, r22
    36e2:	13 97       	sbiw	r26, 0x03	; 3
    36e4:	28 96       	adiw	r28, 0x08	; 8
    36e6:	0f b6       	in	r0, 0x3f	; 63
    36e8:	f8 94       	cli
    36ea:	de bf       	out	0x3e, r29	; 62
    36ec:	0f be       	out	0x3f, r0	; 63
    36ee:	cd bf       	out	0x3d, r28	; 61
    36f0:	df 91       	pop	r29
    36f2:	cf 91       	pop	r28
    36f4:	1f 91       	pop	r17
    36f6:	0f 91       	pop	r16
    36f8:	ff 90       	pop	r15
    36fa:	ef 90       	pop	r14
    36fc:	df 90       	pop	r13
    36fe:	cf 90       	pop	r12
    3700:	bf 90       	pop	r11
    3702:	af 90       	pop	r10
    3704:	9f 90       	pop	r9
    3706:	8f 90       	pop	r8
    3708:	7f 90       	pop	r7
    370a:	6f 90       	pop	r6
    370c:	5f 90       	pop	r5
    370e:	4f 90       	pop	r4
    3710:	3f 90       	pop	r3
    3712:	2f 90       	pop	r2
    3714:	08 95       	ret

00003716 <act>:
    3716:	cf 93       	push	r28
    3718:	df 93       	push	r29
    371a:	ec 01       	movw	r28, r24
    371c:	60 ee       	ldi	r22, 0xE0	; 224
    371e:	71 e0       	ldi	r23, 0x01	; 1
    3720:	0e 94 01 18 	call	0x3002	; 0x3002 <compare_actions>
    3724:	81 11       	cpse	r24, r1
    3726:	14 c0       	rjmp	.+40     	; 0x3750 <act+0x3a>
    3728:	6f 81       	ldd	r22, Y+7	; 0x07
    372a:	78 85       	ldd	r23, Y+8	; 0x08
    372c:	8d 81       	ldd	r24, Y+5	; 0x05
    372e:	9e 81       	ldd	r25, Y+6	; 0x06
    3730:	0e 94 ec 07 	call	0xfd8	; 0xfd8 <STEPPER_set_accel2>
    3734:	6b 81       	ldd	r22, Y+3	; 0x03
    3736:	7c 81       	ldd	r23, Y+4	; 0x04
    3738:	89 81       	ldd	r24, Y+1	; 0x01
    373a:	9a 81       	ldd	r25, Y+2	; 0x02
    373c:	0e 94 89 07 	call	0xf12	; 0xf12 <STEPPER_runn>
    3740:	89 e0       	ldi	r24, 0x09	; 9
    3742:	fe 01       	movw	r30, r28
    3744:	a0 ee       	ldi	r26, 0xE0	; 224
    3746:	b1 e0       	ldi	r27, 0x01	; 1
    3748:	01 90       	ld	r0, Z+
    374a:	0d 92       	st	X+, r0
    374c:	8a 95       	dec	r24
    374e:	e1 f7       	brne	.-8      	; 0x3748 <act+0x32>
    3750:	df 91       	pop	r29
    3752:	cf 91       	pop	r28
    3754:	08 95       	ret

00003756 <CBOT_main>:
    3756:	cf 93       	push	r28
    3758:	df 93       	push	r29
    375a:	cd b7       	in	r28, 0x3d	; 61
    375c:	de b7       	in	r29, 0x3e	; 62
    375e:	66 97       	sbiw	r28, 0x16	; 22
    3760:	0f b6       	in	r0, 0x3f	; 63
    3762:	f8 94       	cli
    3764:	de bf       	out	0x3e, r29	; 62
    3766:	0f be       	out	0x3f, r0	; 63
    3768:	cd bf       	out	0x3d, r28	; 61
    376a:	0e 94 c2 04 	call	0x984	; 0x984 <LED_open>
    376e:	0e 94 ca 03 	call	0x794	; 0x794 <LCD_open>
    3772:	0e 94 e0 06 	call	0xdc0	; 0xdc0 <STEPPER_open>
    3776:	0e 94 2a 03 	call	0x654	; 0x654 <ADC_open>
    377a:	81 e0       	ldi	r24, 0x01	; 1
    377c:	0e 94 52 03 	call	0x6a4	; 0x6a4 <ADC_set_VREF>
    3780:	0e 94 24 0a 	call	0x1448	; 0x1448 <STOPWATCH_open>
    3784:	0e 94 1f 0c 	call	0x183e	; 0x183e <USONIC_open>
    3788:	10 92 0a 02 	sts	0x020A, r1	; 0x80020a <action+0x2>
    378c:	10 92 09 02 	sts	0x0209, r1	; 0x800209 <action+0x1>
    3790:	10 92 0c 02 	sts	0x020C, r1	; 0x80020c <action+0x4>
    3794:	10 92 0b 02 	sts	0x020B, r1	; 0x80020b <action+0x3>
    3798:	10 92 0e 02 	sts	0x020E, r1	; 0x80020e <action+0x6>
    379c:	10 92 0d 02 	sts	0x020D, r1	; 0x80020d <action+0x5>
    37a0:	10 92 10 02 	sts	0x0210, r1	; 0x800210 <action+0x8>
    37a4:	10 92 0f 02 	sts	0x020F, r1	; 0x80020f <action+0x7>
    37a8:	10 92 08 02 	sts	0x0208, r1	; 0x800208 <action>
    37ac:	8e e5       	ldi	r24, 0x5E	; 94
    37ae:	91 e0       	ldi	r25, 0x01	; 1
    37b0:	0e 94 63 26 	call	0x4cc6	; 0x4cc6 <puts>
    37b4:	88 eb       	ldi	r24, 0xB8	; 184
    37b6:	9b e0       	ldi	r25, 0x0B	; 11
    37b8:	0e 94 4b 0b 	call	0x1696	; 0x1696 <TMRSRVC_delay>
    37bc:	ce 01       	movw	r24, r28
    37be:	01 96       	adiw	r24, 0x01	; 1
    37c0:	0e 94 dc 18 	call	0x31b8	; 0x31b8 <Photo_init>
    37c4:	0e 94 a8 03 	call	0x750	; 0x750 <LCD_clear>
    37c8:	6d e7       	ldi	r22, 0x7D	; 125
    37ca:	70 e0       	ldi	r23, 0x00	; 0
    37cc:	ce 01       	movw	r24, r28
    37ce:	01 96       	adiw	r24, 0x01	; 1
    37d0:	0e 94 2e 18 	call	0x305c	; 0x305c <IR_sense>
    37d4:	6a ef       	ldi	r22, 0xFA	; 250
    37d6:	70 e0       	ldi	r23, 0x00	; 0
    37d8:	ce 01       	movw	r24, r28
    37da:	01 96       	adiw	r24, 0x01	; 1
    37dc:	0e 94 54 18 	call	0x30a8	; 0x30a8 <Photo_sense>
    37e0:	64 e6       	ldi	r22, 0x64	; 100
    37e2:	70 e0       	ldi	r23, 0x00	; 0
    37e4:	ce 01       	movw	r24, r28
    37e6:	01 96       	adiw	r24, 0x01	; 1
    37e8:	0e 94 a6 18 	call	0x314c	; 0x314c <Sonar_sense>
    37ec:	88 e0       	ldi	r24, 0x08	; 8
    37ee:	92 e0       	ldi	r25, 0x02	; 2
    37f0:	0e 94 19 19 	call	0x3232	; 0x3232 <Cruise>
    37f4:	be 01       	movw	r22, r28
    37f6:	6f 5f       	subi	r22, 0xFF	; 255
    37f8:	7f 4f       	sbci	r23, 0xFF	; 255
    37fa:	88 e0       	ldi	r24, 0x08	; 8
    37fc:	92 e0       	ldi	r25, 0x02	; 2
    37fe:	0e 94 5a 1a 	call	0x34b4	; 0x34b4 <Light_Follow>
    3802:	be 01       	movw	r22, r28
    3804:	6f 5f       	subi	r22, 0xFF	; 255
    3806:	7f 4f       	sbci	r23, 0xFF	; 255
    3808:	88 e0       	ldi	r24, 0x08	; 8
    380a:	92 e0       	ldi	r25, 0x02	; 2
    380c:	0e 94 29 19 	call	0x3252	; 0x3252 <IR_avoid>
    3810:	88 e0       	ldi	r24, 0x08	; 8
    3812:	92 e0       	ldi	r25, 0x02	; 2
    3814:	0e 94 8b 1b 	call	0x3716	; 0x3716 <act>
    3818:	88 e0       	ldi	r24, 0x08	; 8
    381a:	92 e0       	ldi	r25, 0x02	; 2
    381c:	0e 94 d5 17 	call	0x2faa	; 0x2faa <info_display>
    3820:	d3 cf       	rjmp	.-90     	; 0x37c8 <CBOT_main+0x72>

00003822 <vfprintf>:
    3822:	a3 e1       	ldi	r26, 0x13	; 19
    3824:	b0 e0       	ldi	r27, 0x00	; 0
    3826:	e7 e1       	ldi	r30, 0x17	; 23
    3828:	fc e1       	ldi	r31, 0x1C	; 28
    382a:	0c 94 d9 23 	jmp	0x47b2	; 0x47b2 <__prologue_saves__>
    382e:	6c 01       	movw	r12, r24
    3830:	4b 01       	movw	r8, r22
    3832:	2a 01       	movw	r4, r20
    3834:	fc 01       	movw	r30, r24
    3836:	17 82       	std	Z+7, r1	; 0x07
    3838:	16 82       	std	Z+6, r1	; 0x06
    383a:	83 81       	ldd	r24, Z+3	; 0x03
    383c:	81 ff       	sbrs	r24, 1
    383e:	43 c3       	rjmp	.+1670   	; 0x3ec6 <vfprintf+0x6a4>
    3840:	ae 01       	movw	r20, r28
    3842:	4f 5f       	subi	r20, 0xFF	; 255
    3844:	5f 4f       	sbci	r21, 0xFF	; 255
    3846:	3a 01       	movw	r6, r20
    3848:	f6 01       	movw	r30, r12
    384a:	93 81       	ldd	r25, Z+3	; 0x03
    384c:	f4 01       	movw	r30, r8
    384e:	93 fd       	sbrc	r25, 3
    3850:	85 91       	lpm	r24, Z+
    3852:	93 ff       	sbrs	r25, 3
    3854:	81 91       	ld	r24, Z+
    3856:	4f 01       	movw	r8, r30
    3858:	88 23       	and	r24, r24
    385a:	09 f4       	brne	.+2      	; 0x385e <vfprintf+0x3c>
    385c:	30 c3       	rjmp	.+1632   	; 0x3ebe <vfprintf+0x69c>
    385e:	85 32       	cpi	r24, 0x25	; 37
    3860:	39 f4       	brne	.+14     	; 0x3870 <vfprintf+0x4e>
    3862:	93 fd       	sbrc	r25, 3
    3864:	85 91       	lpm	r24, Z+
    3866:	93 ff       	sbrs	r25, 3
    3868:	81 91       	ld	r24, Z+
    386a:	4f 01       	movw	r8, r30
    386c:	85 32       	cpi	r24, 0x25	; 37
    386e:	39 f4       	brne	.+14     	; 0x387e <vfprintf+0x5c>
    3870:	b6 01       	movw	r22, r12
    3872:	90 e0       	ldi	r25, 0x00	; 0
    3874:	0e 94 2b 26 	call	0x4c56	; 0x4c56 <fputc>
    3878:	52 01       	movw	r10, r4
    387a:	25 01       	movw	r4, r10
    387c:	e5 cf       	rjmp	.-54     	; 0x3848 <vfprintf+0x26>
    387e:	10 e0       	ldi	r17, 0x00	; 0
    3880:	f1 2c       	mov	r15, r1
    3882:	20 e0       	ldi	r18, 0x00	; 0
    3884:	20 32       	cpi	r18, 0x20	; 32
    3886:	a0 f4       	brcc	.+40     	; 0x38b0 <vfprintf+0x8e>
    3888:	8b 32       	cpi	r24, 0x2B	; 43
    388a:	69 f0       	breq	.+26     	; 0x38a6 <vfprintf+0x84>
    388c:	30 f4       	brcc	.+12     	; 0x389a <vfprintf+0x78>
    388e:	80 32       	cpi	r24, 0x20	; 32
    3890:	59 f0       	breq	.+22     	; 0x38a8 <vfprintf+0x86>
    3892:	83 32       	cpi	r24, 0x23	; 35
    3894:	69 f4       	brne	.+26     	; 0x38b0 <vfprintf+0x8e>
    3896:	20 61       	ori	r18, 0x10	; 16
    3898:	2c c0       	rjmp	.+88     	; 0x38f2 <vfprintf+0xd0>
    389a:	8d 32       	cpi	r24, 0x2D	; 45
    389c:	39 f0       	breq	.+14     	; 0x38ac <vfprintf+0x8a>
    389e:	80 33       	cpi	r24, 0x30	; 48
    38a0:	39 f4       	brne	.+14     	; 0x38b0 <vfprintf+0x8e>
    38a2:	21 60       	ori	r18, 0x01	; 1
    38a4:	26 c0       	rjmp	.+76     	; 0x38f2 <vfprintf+0xd0>
    38a6:	22 60       	ori	r18, 0x02	; 2
    38a8:	24 60       	ori	r18, 0x04	; 4
    38aa:	23 c0       	rjmp	.+70     	; 0x38f2 <vfprintf+0xd0>
    38ac:	28 60       	ori	r18, 0x08	; 8
    38ae:	21 c0       	rjmp	.+66     	; 0x38f2 <vfprintf+0xd0>
    38b0:	27 fd       	sbrc	r18, 7
    38b2:	27 c0       	rjmp	.+78     	; 0x3902 <vfprintf+0xe0>
    38b4:	30 ed       	ldi	r19, 0xD0	; 208
    38b6:	38 0f       	add	r19, r24
    38b8:	3a 30       	cpi	r19, 0x0A	; 10
    38ba:	78 f4       	brcc	.+30     	; 0x38da <vfprintf+0xb8>
    38bc:	26 ff       	sbrs	r18, 6
    38be:	06 c0       	rjmp	.+12     	; 0x38cc <vfprintf+0xaa>
    38c0:	fa e0       	ldi	r31, 0x0A	; 10
    38c2:	1f 9f       	mul	r17, r31
    38c4:	30 0d       	add	r19, r0
    38c6:	11 24       	eor	r1, r1
    38c8:	13 2f       	mov	r17, r19
    38ca:	13 c0       	rjmp	.+38     	; 0x38f2 <vfprintf+0xd0>
    38cc:	4a e0       	ldi	r20, 0x0A	; 10
    38ce:	f4 9e       	mul	r15, r20
    38d0:	30 0d       	add	r19, r0
    38d2:	11 24       	eor	r1, r1
    38d4:	f3 2e       	mov	r15, r19
    38d6:	20 62       	ori	r18, 0x20	; 32
    38d8:	0c c0       	rjmp	.+24     	; 0x38f2 <vfprintf+0xd0>
    38da:	8e 32       	cpi	r24, 0x2E	; 46
    38dc:	21 f4       	brne	.+8      	; 0x38e6 <vfprintf+0xc4>
    38de:	26 fd       	sbrc	r18, 6
    38e0:	ee c2       	rjmp	.+1500   	; 0x3ebe <vfprintf+0x69c>
    38e2:	20 64       	ori	r18, 0x40	; 64
    38e4:	06 c0       	rjmp	.+12     	; 0x38f2 <vfprintf+0xd0>
    38e6:	8c 36       	cpi	r24, 0x6C	; 108
    38e8:	11 f4       	brne	.+4      	; 0x38ee <vfprintf+0xcc>
    38ea:	20 68       	ori	r18, 0x80	; 128
    38ec:	02 c0       	rjmp	.+4      	; 0x38f2 <vfprintf+0xd0>
    38ee:	88 36       	cpi	r24, 0x68	; 104
    38f0:	41 f4       	brne	.+16     	; 0x3902 <vfprintf+0xe0>
    38f2:	f4 01       	movw	r30, r8
    38f4:	93 fd       	sbrc	r25, 3
    38f6:	85 91       	lpm	r24, Z+
    38f8:	93 ff       	sbrs	r25, 3
    38fa:	81 91       	ld	r24, Z+
    38fc:	4f 01       	movw	r8, r30
    38fe:	81 11       	cpse	r24, r1
    3900:	c1 cf       	rjmp	.-126    	; 0x3884 <vfprintf+0x62>
    3902:	9b eb       	ldi	r25, 0xBB	; 187
    3904:	98 0f       	add	r25, r24
    3906:	93 30       	cpi	r25, 0x03	; 3
    3908:	18 f4       	brcc	.+6      	; 0x3910 <vfprintf+0xee>
    390a:	20 61       	ori	r18, 0x10	; 16
    390c:	80 5e       	subi	r24, 0xE0	; 224
    390e:	06 c0       	rjmp	.+12     	; 0x391c <vfprintf+0xfa>
    3910:	9b e9       	ldi	r25, 0x9B	; 155
    3912:	98 0f       	add	r25, r24
    3914:	93 30       	cpi	r25, 0x03	; 3
    3916:	08 f0       	brcs	.+2      	; 0x391a <vfprintf+0xf8>
    3918:	71 c1       	rjmp	.+738    	; 0x3bfc <vfprintf+0x3da>
    391a:	2f 7e       	andi	r18, 0xEF	; 239
    391c:	26 ff       	sbrs	r18, 6
    391e:	16 e0       	ldi	r17, 0x06	; 6
    3920:	2f 73       	andi	r18, 0x3F	; 63
    3922:	32 2e       	mov	r3, r18
    3924:	85 36       	cpi	r24, 0x65	; 101
    3926:	19 f4       	brne	.+6      	; 0x392e <vfprintf+0x10c>
    3928:	20 64       	ori	r18, 0x40	; 64
    392a:	32 2e       	mov	r3, r18
    392c:	08 c0       	rjmp	.+16     	; 0x393e <vfprintf+0x11c>
    392e:	86 36       	cpi	r24, 0x66	; 102
    3930:	21 f4       	brne	.+8      	; 0x393a <vfprintf+0x118>
    3932:	f2 2f       	mov	r31, r18
    3934:	f0 68       	ori	r31, 0x80	; 128
    3936:	3f 2e       	mov	r3, r31
    3938:	02 c0       	rjmp	.+4      	; 0x393e <vfprintf+0x11c>
    393a:	11 11       	cpse	r17, r1
    393c:	11 50       	subi	r17, 0x01	; 1
    393e:	37 fe       	sbrs	r3, 7
    3940:	07 c0       	rjmp	.+14     	; 0x3950 <vfprintf+0x12e>
    3942:	1c 33       	cpi	r17, 0x3C	; 60
    3944:	50 f4       	brcc	.+20     	; 0x395a <vfprintf+0x138>
    3946:	ee 24       	eor	r14, r14
    3948:	e3 94       	inc	r14
    394a:	e1 0e       	add	r14, r17
    394c:	27 e0       	ldi	r18, 0x07	; 7
    394e:	0b c0       	rjmp	.+22     	; 0x3966 <vfprintf+0x144>
    3950:	18 30       	cpi	r17, 0x08	; 8
    3952:	38 f0       	brcs	.+14     	; 0x3962 <vfprintf+0x140>
    3954:	27 e0       	ldi	r18, 0x07	; 7
    3956:	17 e0       	ldi	r17, 0x07	; 7
    3958:	05 c0       	rjmp	.+10     	; 0x3964 <vfprintf+0x142>
    395a:	27 e0       	ldi	r18, 0x07	; 7
    395c:	4c e3       	ldi	r20, 0x3C	; 60
    395e:	e4 2e       	mov	r14, r20
    3960:	02 c0       	rjmp	.+4      	; 0x3966 <vfprintf+0x144>
    3962:	21 2f       	mov	r18, r17
    3964:	e1 2c       	mov	r14, r1
    3966:	52 01       	movw	r10, r4
    3968:	44 e0       	ldi	r20, 0x04	; 4
    396a:	a4 0e       	add	r10, r20
    396c:	b1 1c       	adc	r11, r1
    396e:	f2 01       	movw	r30, r4
    3970:	60 81       	ld	r22, Z
    3972:	71 81       	ldd	r23, Z+1	; 0x01
    3974:	82 81       	ldd	r24, Z+2	; 0x02
    3976:	93 81       	ldd	r25, Z+3	; 0x03
    3978:	0e 2d       	mov	r16, r14
    397a:	a3 01       	movw	r20, r6
    397c:	0e 94 3d 25 	call	0x4a7a	; 0x4a7a <__ftoa_engine>
    3980:	2c 01       	movw	r4, r24
    3982:	09 81       	ldd	r16, Y+1	; 0x01
    3984:	00 ff       	sbrs	r16, 0
    3986:	02 c0       	rjmp	.+4      	; 0x398c <vfprintf+0x16a>
    3988:	03 ff       	sbrs	r16, 3
    398a:	07 c0       	rjmp	.+14     	; 0x399a <vfprintf+0x178>
    398c:	31 fc       	sbrc	r3, 1
    398e:	08 c0       	rjmp	.+16     	; 0x39a0 <vfprintf+0x17e>
    3990:	32 fe       	sbrs	r3, 2
    3992:	09 c0       	rjmp	.+18     	; 0x39a6 <vfprintf+0x184>
    3994:	30 e2       	ldi	r19, 0x20	; 32
    3996:	23 2e       	mov	r2, r19
    3998:	07 c0       	rjmp	.+14     	; 0x39a8 <vfprintf+0x186>
    399a:	2d e2       	ldi	r18, 0x2D	; 45
    399c:	22 2e       	mov	r2, r18
    399e:	04 c0       	rjmp	.+8      	; 0x39a8 <vfprintf+0x186>
    39a0:	9b e2       	ldi	r25, 0x2B	; 43
    39a2:	29 2e       	mov	r2, r25
    39a4:	01 c0       	rjmp	.+2      	; 0x39a8 <vfprintf+0x186>
    39a6:	21 2c       	mov	r2, r1
    39a8:	80 2f       	mov	r24, r16
    39aa:	8c 70       	andi	r24, 0x0C	; 12
    39ac:	19 f0       	breq	.+6      	; 0x39b4 <vfprintf+0x192>
    39ae:	21 10       	cpse	r2, r1
    39b0:	68 c2       	rjmp	.+1232   	; 0x3e82 <vfprintf+0x660>
    39b2:	a8 c2       	rjmp	.+1360   	; 0x3f04 <vfprintf+0x6e2>
    39b4:	37 fe       	sbrs	r3, 7
    39b6:	0f c0       	rjmp	.+30     	; 0x39d6 <vfprintf+0x1b4>
    39b8:	e4 0c       	add	r14, r4
    39ba:	04 ff       	sbrs	r16, 4
    39bc:	04 c0       	rjmp	.+8      	; 0x39c6 <vfprintf+0x1a4>
    39be:	8a 81       	ldd	r24, Y+2	; 0x02
    39c0:	81 33       	cpi	r24, 0x31	; 49
    39c2:	09 f4       	brne	.+2      	; 0x39c6 <vfprintf+0x1a4>
    39c4:	ea 94       	dec	r14
    39c6:	1e 14       	cp	r1, r14
    39c8:	74 f5       	brge	.+92     	; 0x3a26 <vfprintf+0x204>
    39ca:	f8 e0       	ldi	r31, 0x08	; 8
    39cc:	fe 15       	cp	r31, r14
    39ce:	78 f5       	brcc	.+94     	; 0x3a2e <vfprintf+0x20c>
    39d0:	88 e0       	ldi	r24, 0x08	; 8
    39d2:	e8 2e       	mov	r14, r24
    39d4:	2c c0       	rjmp	.+88     	; 0x3a2e <vfprintf+0x20c>
    39d6:	36 fc       	sbrc	r3, 6
    39d8:	2a c0       	rjmp	.+84     	; 0x3a2e <vfprintf+0x20c>
    39da:	81 2f       	mov	r24, r17
    39dc:	90 e0       	ldi	r25, 0x00	; 0
    39de:	84 15       	cp	r24, r4
    39e0:	95 05       	cpc	r25, r5
    39e2:	9c f0       	brlt	.+38     	; 0x3a0a <vfprintf+0x1e8>
    39e4:	2c ef       	ldi	r18, 0xFC	; 252
    39e6:	42 16       	cp	r4, r18
    39e8:	2f ef       	ldi	r18, 0xFF	; 255
    39ea:	52 06       	cpc	r5, r18
    39ec:	74 f0       	brlt	.+28     	; 0x3a0a <vfprintf+0x1e8>
    39ee:	43 2d       	mov	r20, r3
    39f0:	40 68       	ori	r20, 0x80	; 128
    39f2:	34 2e       	mov	r3, r20
    39f4:	0a c0       	rjmp	.+20     	; 0x3a0a <vfprintf+0x1e8>
    39f6:	e2 e0       	ldi	r30, 0x02	; 2
    39f8:	f0 e0       	ldi	r31, 0x00	; 0
    39fa:	ec 0f       	add	r30, r28
    39fc:	fd 1f       	adc	r31, r29
    39fe:	e1 0f       	add	r30, r17
    3a00:	f1 1d       	adc	r31, r1
    3a02:	80 81       	ld	r24, Z
    3a04:	80 33       	cpi	r24, 0x30	; 48
    3a06:	19 f4       	brne	.+6      	; 0x3a0e <vfprintf+0x1ec>
    3a08:	11 50       	subi	r17, 0x01	; 1
    3a0a:	11 11       	cpse	r17, r1
    3a0c:	f4 cf       	rjmp	.-24     	; 0x39f6 <vfprintf+0x1d4>
    3a0e:	37 fe       	sbrs	r3, 7
    3a10:	0e c0       	rjmp	.+28     	; 0x3a2e <vfprintf+0x20c>
    3a12:	ee 24       	eor	r14, r14
    3a14:	e3 94       	inc	r14
    3a16:	e1 0e       	add	r14, r17
    3a18:	81 2f       	mov	r24, r17
    3a1a:	90 e0       	ldi	r25, 0x00	; 0
    3a1c:	48 16       	cp	r4, r24
    3a1e:	59 06       	cpc	r5, r25
    3a20:	2c f4       	brge	.+10     	; 0x3a2c <vfprintf+0x20a>
    3a22:	14 19       	sub	r17, r4
    3a24:	04 c0       	rjmp	.+8      	; 0x3a2e <vfprintf+0x20c>
    3a26:	ee 24       	eor	r14, r14
    3a28:	e3 94       	inc	r14
    3a2a:	01 c0       	rjmp	.+2      	; 0x3a2e <vfprintf+0x20c>
    3a2c:	10 e0       	ldi	r17, 0x00	; 0
    3a2e:	37 fe       	sbrs	r3, 7
    3a30:	06 c0       	rjmp	.+12     	; 0x3a3e <vfprintf+0x21c>
    3a32:	14 14       	cp	r1, r4
    3a34:	15 04       	cpc	r1, r5
    3a36:	34 f4       	brge	.+12     	; 0x3a44 <vfprintf+0x222>
    3a38:	c2 01       	movw	r24, r4
    3a3a:	01 96       	adiw	r24, 0x01	; 1
    3a3c:	05 c0       	rjmp	.+10     	; 0x3a48 <vfprintf+0x226>
    3a3e:	85 e0       	ldi	r24, 0x05	; 5
    3a40:	90 e0       	ldi	r25, 0x00	; 0
    3a42:	02 c0       	rjmp	.+4      	; 0x3a48 <vfprintf+0x226>
    3a44:	81 e0       	ldi	r24, 0x01	; 1
    3a46:	90 e0       	ldi	r25, 0x00	; 0
    3a48:	21 10       	cpse	r2, r1
    3a4a:	01 96       	adiw	r24, 0x01	; 1
    3a4c:	11 23       	and	r17, r17
    3a4e:	31 f0       	breq	.+12     	; 0x3a5c <vfprintf+0x23a>
    3a50:	21 2f       	mov	r18, r17
    3a52:	30 e0       	ldi	r19, 0x00	; 0
    3a54:	2f 5f       	subi	r18, 0xFF	; 255
    3a56:	3f 4f       	sbci	r19, 0xFF	; 255
    3a58:	82 0f       	add	r24, r18
    3a5a:	93 1f       	adc	r25, r19
    3a5c:	2f 2d       	mov	r18, r15
    3a5e:	30 e0       	ldi	r19, 0x00	; 0
    3a60:	82 17       	cp	r24, r18
    3a62:	93 07       	cpc	r25, r19
    3a64:	14 f4       	brge	.+4      	; 0x3a6a <vfprintf+0x248>
    3a66:	f8 1a       	sub	r15, r24
    3a68:	01 c0       	rjmp	.+2      	; 0x3a6c <vfprintf+0x24a>
    3a6a:	f1 2c       	mov	r15, r1
    3a6c:	83 2d       	mov	r24, r3
    3a6e:	89 70       	andi	r24, 0x09	; 9
    3a70:	49 f4       	brne	.+18     	; 0x3a84 <vfprintf+0x262>
    3a72:	ff 20       	and	r15, r15
    3a74:	39 f0       	breq	.+14     	; 0x3a84 <vfprintf+0x262>
    3a76:	b6 01       	movw	r22, r12
    3a78:	80 e2       	ldi	r24, 0x20	; 32
    3a7a:	90 e0       	ldi	r25, 0x00	; 0
    3a7c:	0e 94 2b 26 	call	0x4c56	; 0x4c56 <fputc>
    3a80:	fa 94       	dec	r15
    3a82:	f7 cf       	rjmp	.-18     	; 0x3a72 <vfprintf+0x250>
    3a84:	22 20       	and	r2, r2
    3a86:	29 f0       	breq	.+10     	; 0x3a92 <vfprintf+0x270>
    3a88:	b6 01       	movw	r22, r12
    3a8a:	82 2d       	mov	r24, r2
    3a8c:	90 e0       	ldi	r25, 0x00	; 0
    3a8e:	0e 94 2b 26 	call	0x4c56	; 0x4c56 <fputc>
    3a92:	33 fc       	sbrc	r3, 3
    3a94:	09 c0       	rjmp	.+18     	; 0x3aa8 <vfprintf+0x286>
    3a96:	ff 20       	and	r15, r15
    3a98:	39 f0       	breq	.+14     	; 0x3aa8 <vfprintf+0x286>
    3a9a:	b6 01       	movw	r22, r12
    3a9c:	80 e3       	ldi	r24, 0x30	; 48
    3a9e:	90 e0       	ldi	r25, 0x00	; 0
    3aa0:	0e 94 2b 26 	call	0x4c56	; 0x4c56 <fputc>
    3aa4:	fa 94       	dec	r15
    3aa6:	f7 cf       	rjmp	.-18     	; 0x3a96 <vfprintf+0x274>
    3aa8:	37 fe       	sbrs	r3, 7
    3aaa:	5a c0       	rjmp	.+180    	; 0x3b60 <vfprintf+0x33e>
    3aac:	94 2d       	mov	r25, r4
    3aae:	85 2d       	mov	r24, r5
    3ab0:	57 fe       	sbrs	r5, 7
    3ab2:	02 c0       	rjmp	.+4      	; 0x3ab8 <vfprintf+0x296>
    3ab4:	90 e0       	ldi	r25, 0x00	; 0
    3ab6:	80 e0       	ldi	r24, 0x00	; 0
    3ab8:	29 2e       	mov	r2, r25
    3aba:	38 2e       	mov	r3, r24
    3abc:	20 e0       	ldi	r18, 0x00	; 0
    3abe:	30 e0       	ldi	r19, 0x00	; 0
    3ac0:	a2 01       	movw	r20, r4
    3ac2:	4e 19       	sub	r20, r14
    3ac4:	51 09       	sbc	r21, r1
    3ac6:	5d 87       	std	Y+13, r21	; 0x0d
    3ac8:	4c 87       	std	Y+12, r20	; 0x0c
    3aca:	a2 01       	movw	r20, r4
    3acc:	42 19       	sub	r20, r2
    3ace:	53 09       	sbc	r21, r3
    3ad0:	5f 87       	std	Y+15, r21	; 0x0f
    3ad2:	4e 87       	std	Y+14, r20	; 0x0e
    3ad4:	61 2f       	mov	r22, r17
    3ad6:	70 e0       	ldi	r23, 0x00	; 0
    3ad8:	44 27       	eor	r20, r20
    3ada:	55 27       	eor	r21, r21
    3adc:	46 1b       	sub	r20, r22
    3ade:	57 0b       	sbc	r21, r23
    3ae0:	59 8b       	std	Y+17, r21	; 0x11
    3ae2:	48 8b       	std	Y+16, r20	; 0x10
    3ae4:	5f ef       	ldi	r21, 0xFF	; 255
    3ae6:	25 16       	cp	r2, r21
    3ae8:	35 06       	cpc	r3, r21
    3aea:	49 f4       	brne	.+18     	; 0x3afe <vfprintf+0x2dc>
    3aec:	b6 01       	movw	r22, r12
    3aee:	8e e2       	ldi	r24, 0x2E	; 46
    3af0:	90 e0       	ldi	r25, 0x00	; 0
    3af2:	2a 8b       	std	Y+18, r18	; 0x12
    3af4:	3b 8b       	std	Y+19, r19	; 0x13
    3af6:	0e 94 2b 26 	call	0x4c56	; 0x4c56 <fputc>
    3afa:	3b 89       	ldd	r19, Y+19	; 0x13
    3afc:	2a 89       	ldd	r18, Y+18	; 0x12
    3afe:	42 14       	cp	r4, r2
    3b00:	53 04       	cpc	r5, r3
    3b02:	6c f0       	brlt	.+26     	; 0x3b1e <vfprintf+0x2fc>
    3b04:	4c 85       	ldd	r20, Y+12	; 0x0c
    3b06:	5d 85       	ldd	r21, Y+13	; 0x0d
    3b08:	42 15       	cp	r20, r2
    3b0a:	53 05       	cpc	r21, r3
    3b0c:	44 f4       	brge	.+16     	; 0x3b1e <vfprintf+0x2fc>
    3b0e:	ee 85       	ldd	r30, Y+14	; 0x0e
    3b10:	ff 85       	ldd	r31, Y+15	; 0x0f
    3b12:	e2 0f       	add	r30, r18
    3b14:	f3 1f       	adc	r31, r19
    3b16:	e6 0d       	add	r30, r6
    3b18:	f7 1d       	adc	r31, r7
    3b1a:	81 81       	ldd	r24, Z+1	; 0x01
    3b1c:	01 c0       	rjmp	.+2      	; 0x3b20 <vfprintf+0x2fe>
    3b1e:	80 e3       	ldi	r24, 0x30	; 48
    3b20:	51 e0       	ldi	r21, 0x01	; 1
    3b22:	25 1a       	sub	r2, r21
    3b24:	31 08       	sbc	r3, r1
    3b26:	2f 5f       	subi	r18, 0xFF	; 255
    3b28:	3f 4f       	sbci	r19, 0xFF	; 255
    3b2a:	48 89       	ldd	r20, Y+16	; 0x10
    3b2c:	59 89       	ldd	r21, Y+17	; 0x11
    3b2e:	24 16       	cp	r2, r20
    3b30:	35 06       	cpc	r3, r21
    3b32:	4c f0       	brlt	.+18     	; 0x3b46 <vfprintf+0x324>
    3b34:	b6 01       	movw	r22, r12
    3b36:	90 e0       	ldi	r25, 0x00	; 0
    3b38:	2a 8b       	std	Y+18, r18	; 0x12
    3b3a:	3b 8b       	std	Y+19, r19	; 0x13
    3b3c:	0e 94 2b 26 	call	0x4c56	; 0x4c56 <fputc>
    3b40:	2a 89       	ldd	r18, Y+18	; 0x12
    3b42:	3b 89       	ldd	r19, Y+19	; 0x13
    3b44:	cf cf       	rjmp	.-98     	; 0x3ae4 <vfprintf+0x2c2>
    3b46:	24 14       	cp	r2, r4
    3b48:	35 04       	cpc	r3, r5
    3b4a:	39 f4       	brne	.+14     	; 0x3b5a <vfprintf+0x338>
    3b4c:	9a 81       	ldd	r25, Y+2	; 0x02
    3b4e:	96 33       	cpi	r25, 0x36	; 54
    3b50:	18 f4       	brcc	.+6      	; 0x3b58 <vfprintf+0x336>
    3b52:	95 33       	cpi	r25, 0x35	; 53
    3b54:	11 f4       	brne	.+4      	; 0x3b5a <vfprintf+0x338>
    3b56:	04 ff       	sbrs	r16, 4
    3b58:	81 e3       	ldi	r24, 0x31	; 49
    3b5a:	b6 01       	movw	r22, r12
    3b5c:	90 e0       	ldi	r25, 0x00	; 0
    3b5e:	4b c0       	rjmp	.+150    	; 0x3bf6 <vfprintf+0x3d4>
    3b60:	8a 81       	ldd	r24, Y+2	; 0x02
    3b62:	81 33       	cpi	r24, 0x31	; 49
    3b64:	09 f0       	breq	.+2      	; 0x3b68 <vfprintf+0x346>
    3b66:	0f 7e       	andi	r16, 0xEF	; 239
    3b68:	b6 01       	movw	r22, r12
    3b6a:	90 e0       	ldi	r25, 0x00	; 0
    3b6c:	0e 94 2b 26 	call	0x4c56	; 0x4c56 <fputc>
    3b70:	11 11       	cpse	r17, r1
    3b72:	05 c0       	rjmp	.+10     	; 0x3b7e <vfprintf+0x35c>
    3b74:	34 fc       	sbrc	r3, 4
    3b76:	18 c0       	rjmp	.+48     	; 0x3ba8 <vfprintf+0x386>
    3b78:	85 e6       	ldi	r24, 0x65	; 101
    3b7a:	90 e0       	ldi	r25, 0x00	; 0
    3b7c:	17 c0       	rjmp	.+46     	; 0x3bac <vfprintf+0x38a>
    3b7e:	b6 01       	movw	r22, r12
    3b80:	8e e2       	ldi	r24, 0x2E	; 46
    3b82:	90 e0       	ldi	r25, 0x00	; 0
    3b84:	0e 94 2b 26 	call	0x4c56	; 0x4c56 <fputc>
    3b88:	82 e0       	ldi	r24, 0x02	; 2
    3b8a:	ee 24       	eor	r14, r14
    3b8c:	e3 94       	inc	r14
    3b8e:	e8 0e       	add	r14, r24
    3b90:	f3 01       	movw	r30, r6
    3b92:	e8 0f       	add	r30, r24
    3b94:	f1 1d       	adc	r31, r1
    3b96:	80 81       	ld	r24, Z
    3b98:	b6 01       	movw	r22, r12
    3b9a:	90 e0       	ldi	r25, 0x00	; 0
    3b9c:	0e 94 2b 26 	call	0x4c56	; 0x4c56 <fputc>
    3ba0:	11 50       	subi	r17, 0x01	; 1
    3ba2:	8e 2d       	mov	r24, r14
    3ba4:	91 f7       	brne	.-28     	; 0x3b8a <vfprintf+0x368>
    3ba6:	e6 cf       	rjmp	.-52     	; 0x3b74 <vfprintf+0x352>
    3ba8:	85 e4       	ldi	r24, 0x45	; 69
    3baa:	90 e0       	ldi	r25, 0x00	; 0
    3bac:	b6 01       	movw	r22, r12
    3bae:	0e 94 2b 26 	call	0x4c56	; 0x4c56 <fputc>
    3bb2:	57 fc       	sbrc	r5, 7
    3bb4:	05 c0       	rjmp	.+10     	; 0x3bc0 <vfprintf+0x39e>
    3bb6:	41 14       	cp	r4, r1
    3bb8:	51 04       	cpc	r5, r1
    3bba:	39 f4       	brne	.+14     	; 0x3bca <vfprintf+0x3a8>
    3bbc:	04 ff       	sbrs	r16, 4
    3bbe:	05 c0       	rjmp	.+10     	; 0x3bca <vfprintf+0x3a8>
    3bc0:	51 94       	neg	r5
    3bc2:	41 94       	neg	r4
    3bc4:	51 08       	sbc	r5, r1
    3bc6:	8d e2       	ldi	r24, 0x2D	; 45
    3bc8:	01 c0       	rjmp	.+2      	; 0x3bcc <vfprintf+0x3aa>
    3bca:	8b e2       	ldi	r24, 0x2B	; 43
    3bcc:	b6 01       	movw	r22, r12
    3bce:	90 e0       	ldi	r25, 0x00	; 0
    3bd0:	0e 94 2b 26 	call	0x4c56	; 0x4c56 <fputc>
    3bd4:	80 e3       	ldi	r24, 0x30	; 48
    3bd6:	9a e0       	ldi	r25, 0x0A	; 10
    3bd8:	49 16       	cp	r4, r25
    3bda:	51 04       	cpc	r5, r1
    3bdc:	2c f0       	brlt	.+10     	; 0x3be8 <vfprintf+0x3c6>
    3bde:	8f 5f       	subi	r24, 0xFF	; 255
    3be0:	5a e0       	ldi	r21, 0x0A	; 10
    3be2:	45 1a       	sub	r4, r21
    3be4:	51 08       	sbc	r5, r1
    3be6:	f7 cf       	rjmp	.-18     	; 0x3bd6 <vfprintf+0x3b4>
    3be8:	b6 01       	movw	r22, r12
    3bea:	90 e0       	ldi	r25, 0x00	; 0
    3bec:	0e 94 2b 26 	call	0x4c56	; 0x4c56 <fputc>
    3bf0:	b6 01       	movw	r22, r12
    3bf2:	c2 01       	movw	r24, r4
    3bf4:	c0 96       	adiw	r24, 0x30	; 48
    3bf6:	0e 94 2b 26 	call	0x4c56	; 0x4c56 <fputc>
    3bfa:	57 c1       	rjmp	.+686    	; 0x3eaa <vfprintf+0x688>
    3bfc:	83 36       	cpi	r24, 0x63	; 99
    3bfe:	31 f0       	breq	.+12     	; 0x3c0c <vfprintf+0x3ea>
    3c00:	83 37       	cpi	r24, 0x73	; 115
    3c02:	79 f0       	breq	.+30     	; 0x3c22 <vfprintf+0x400>
    3c04:	83 35       	cpi	r24, 0x53	; 83
    3c06:	09 f0       	breq	.+2      	; 0x3c0a <vfprintf+0x3e8>
    3c08:	58 c0       	rjmp	.+176    	; 0x3cba <vfprintf+0x498>
    3c0a:	21 c0       	rjmp	.+66     	; 0x3c4e <vfprintf+0x42c>
    3c0c:	52 01       	movw	r10, r4
    3c0e:	e2 e0       	ldi	r30, 0x02	; 2
    3c10:	ae 0e       	add	r10, r30
    3c12:	b1 1c       	adc	r11, r1
    3c14:	f2 01       	movw	r30, r4
    3c16:	80 81       	ld	r24, Z
    3c18:	89 83       	std	Y+1, r24	; 0x01
    3c1a:	01 e0       	ldi	r16, 0x01	; 1
    3c1c:	10 e0       	ldi	r17, 0x00	; 0
    3c1e:	23 01       	movw	r4, r6
    3c20:	14 c0       	rjmp	.+40     	; 0x3c4a <vfprintf+0x428>
    3c22:	52 01       	movw	r10, r4
    3c24:	f2 e0       	ldi	r31, 0x02	; 2
    3c26:	af 0e       	add	r10, r31
    3c28:	b1 1c       	adc	r11, r1
    3c2a:	f2 01       	movw	r30, r4
    3c2c:	40 80       	ld	r4, Z
    3c2e:	51 80       	ldd	r5, Z+1	; 0x01
    3c30:	26 ff       	sbrs	r18, 6
    3c32:	03 c0       	rjmp	.+6      	; 0x3c3a <vfprintf+0x418>
    3c34:	61 2f       	mov	r22, r17
    3c36:	70 e0       	ldi	r23, 0x00	; 0
    3c38:	02 c0       	rjmp	.+4      	; 0x3c3e <vfprintf+0x41c>
    3c3a:	6f ef       	ldi	r22, 0xFF	; 255
    3c3c:	7f ef       	ldi	r23, 0xFF	; 255
    3c3e:	c2 01       	movw	r24, r4
    3c40:	2a 8b       	std	Y+18, r18	; 0x12
    3c42:	0e 94 20 26 	call	0x4c40	; 0x4c40 <strnlen>
    3c46:	8c 01       	movw	r16, r24
    3c48:	2a 89       	ldd	r18, Y+18	; 0x12
    3c4a:	2f 77       	andi	r18, 0x7F	; 127
    3c4c:	15 c0       	rjmp	.+42     	; 0x3c78 <vfprintf+0x456>
    3c4e:	52 01       	movw	r10, r4
    3c50:	f2 e0       	ldi	r31, 0x02	; 2
    3c52:	af 0e       	add	r10, r31
    3c54:	b1 1c       	adc	r11, r1
    3c56:	f2 01       	movw	r30, r4
    3c58:	40 80       	ld	r4, Z
    3c5a:	51 80       	ldd	r5, Z+1	; 0x01
    3c5c:	26 ff       	sbrs	r18, 6
    3c5e:	03 c0       	rjmp	.+6      	; 0x3c66 <vfprintf+0x444>
    3c60:	61 2f       	mov	r22, r17
    3c62:	70 e0       	ldi	r23, 0x00	; 0
    3c64:	02 c0       	rjmp	.+4      	; 0x3c6a <vfprintf+0x448>
    3c66:	6f ef       	ldi	r22, 0xFF	; 255
    3c68:	7f ef       	ldi	r23, 0xFF	; 255
    3c6a:	c2 01       	movw	r24, r4
    3c6c:	2a 8b       	std	Y+18, r18	; 0x12
    3c6e:	0e 94 15 26 	call	0x4c2a	; 0x4c2a <strnlen_P>
    3c72:	8c 01       	movw	r16, r24
    3c74:	2a 89       	ldd	r18, Y+18	; 0x12
    3c76:	20 68       	ori	r18, 0x80	; 128
    3c78:	32 2e       	mov	r3, r18
    3c7a:	23 fd       	sbrc	r18, 3
    3c7c:	1a c0       	rjmp	.+52     	; 0x3cb2 <vfprintf+0x490>
    3c7e:	8f 2d       	mov	r24, r15
    3c80:	90 e0       	ldi	r25, 0x00	; 0
    3c82:	08 17       	cp	r16, r24
    3c84:	19 07       	cpc	r17, r25
    3c86:	a8 f4       	brcc	.+42     	; 0x3cb2 <vfprintf+0x490>
    3c88:	b6 01       	movw	r22, r12
    3c8a:	80 e2       	ldi	r24, 0x20	; 32
    3c8c:	90 e0       	ldi	r25, 0x00	; 0
    3c8e:	0e 94 2b 26 	call	0x4c56	; 0x4c56 <fputc>
    3c92:	fa 94       	dec	r15
    3c94:	f4 cf       	rjmp	.-24     	; 0x3c7e <vfprintf+0x45c>
    3c96:	f2 01       	movw	r30, r4
    3c98:	37 fc       	sbrc	r3, 7
    3c9a:	85 91       	lpm	r24, Z+
    3c9c:	37 fe       	sbrs	r3, 7
    3c9e:	81 91       	ld	r24, Z+
    3ca0:	2f 01       	movw	r4, r30
    3ca2:	b6 01       	movw	r22, r12
    3ca4:	90 e0       	ldi	r25, 0x00	; 0
    3ca6:	0e 94 2b 26 	call	0x4c56	; 0x4c56 <fputc>
    3caa:	f1 10       	cpse	r15, r1
    3cac:	fa 94       	dec	r15
    3cae:	01 50       	subi	r16, 0x01	; 1
    3cb0:	11 09       	sbc	r17, r1
    3cb2:	01 15       	cp	r16, r1
    3cb4:	11 05       	cpc	r17, r1
    3cb6:	79 f7       	brne	.-34     	; 0x3c96 <vfprintf+0x474>
    3cb8:	f8 c0       	rjmp	.+496    	; 0x3eaa <vfprintf+0x688>
    3cba:	84 36       	cpi	r24, 0x64	; 100
    3cbc:	11 f0       	breq	.+4      	; 0x3cc2 <vfprintf+0x4a0>
    3cbe:	89 36       	cpi	r24, 0x69	; 105
    3cc0:	59 f5       	brne	.+86     	; 0x3d18 <vfprintf+0x4f6>
    3cc2:	52 01       	movw	r10, r4
    3cc4:	27 ff       	sbrs	r18, 7
    3cc6:	09 c0       	rjmp	.+18     	; 0x3cda <vfprintf+0x4b8>
    3cc8:	f4 e0       	ldi	r31, 0x04	; 4
    3cca:	af 0e       	add	r10, r31
    3ccc:	b1 1c       	adc	r11, r1
    3cce:	f2 01       	movw	r30, r4
    3cd0:	60 81       	ld	r22, Z
    3cd2:	71 81       	ldd	r23, Z+1	; 0x01
    3cd4:	82 81       	ldd	r24, Z+2	; 0x02
    3cd6:	93 81       	ldd	r25, Z+3	; 0x03
    3cd8:	0a c0       	rjmp	.+20     	; 0x3cee <vfprintf+0x4cc>
    3cda:	f2 e0       	ldi	r31, 0x02	; 2
    3cdc:	af 0e       	add	r10, r31
    3cde:	b1 1c       	adc	r11, r1
    3ce0:	f2 01       	movw	r30, r4
    3ce2:	60 81       	ld	r22, Z
    3ce4:	71 81       	ldd	r23, Z+1	; 0x01
    3ce6:	07 2e       	mov	r0, r23
    3ce8:	00 0c       	add	r0, r0
    3cea:	88 0b       	sbc	r24, r24
    3cec:	99 0b       	sbc	r25, r25
    3cee:	2f 76       	andi	r18, 0x6F	; 111
    3cf0:	32 2e       	mov	r3, r18
    3cf2:	97 ff       	sbrs	r25, 7
    3cf4:	09 c0       	rjmp	.+18     	; 0x3d08 <vfprintf+0x4e6>
    3cf6:	90 95       	com	r25
    3cf8:	80 95       	com	r24
    3cfa:	70 95       	com	r23
    3cfc:	61 95       	neg	r22
    3cfe:	7f 4f       	sbci	r23, 0xFF	; 255
    3d00:	8f 4f       	sbci	r24, 0xFF	; 255
    3d02:	9f 4f       	sbci	r25, 0xFF	; 255
    3d04:	20 68       	ori	r18, 0x80	; 128
    3d06:	32 2e       	mov	r3, r18
    3d08:	2a e0       	ldi	r18, 0x0A	; 10
    3d0a:	30 e0       	ldi	r19, 0x00	; 0
    3d0c:	a3 01       	movw	r20, r6
    3d0e:	0e 94 93 26 	call	0x4d26	; 0x4d26 <__ultoa_invert>
    3d12:	e8 2e       	mov	r14, r24
    3d14:	e6 18       	sub	r14, r6
    3d16:	3f c0       	rjmp	.+126    	; 0x3d96 <vfprintf+0x574>
    3d18:	02 2f       	mov	r16, r18
    3d1a:	85 37       	cpi	r24, 0x75	; 117
    3d1c:	21 f4       	brne	.+8      	; 0x3d26 <vfprintf+0x504>
    3d1e:	0f 7e       	andi	r16, 0xEF	; 239
    3d20:	2a e0       	ldi	r18, 0x0A	; 10
    3d22:	30 e0       	ldi	r19, 0x00	; 0
    3d24:	1d c0       	rjmp	.+58     	; 0x3d60 <vfprintf+0x53e>
    3d26:	09 7f       	andi	r16, 0xF9	; 249
    3d28:	8f 36       	cpi	r24, 0x6F	; 111
    3d2a:	91 f0       	breq	.+36     	; 0x3d50 <vfprintf+0x52e>
    3d2c:	18 f4       	brcc	.+6      	; 0x3d34 <vfprintf+0x512>
    3d2e:	88 35       	cpi	r24, 0x58	; 88
    3d30:	59 f0       	breq	.+22     	; 0x3d48 <vfprintf+0x526>
    3d32:	c5 c0       	rjmp	.+394    	; 0x3ebe <vfprintf+0x69c>
    3d34:	80 37       	cpi	r24, 0x70	; 112
    3d36:	19 f0       	breq	.+6      	; 0x3d3e <vfprintf+0x51c>
    3d38:	88 37       	cpi	r24, 0x78	; 120
    3d3a:	11 f0       	breq	.+4      	; 0x3d40 <vfprintf+0x51e>
    3d3c:	c0 c0       	rjmp	.+384    	; 0x3ebe <vfprintf+0x69c>
    3d3e:	00 61       	ori	r16, 0x10	; 16
    3d40:	04 ff       	sbrs	r16, 4
    3d42:	09 c0       	rjmp	.+18     	; 0x3d56 <vfprintf+0x534>
    3d44:	04 60       	ori	r16, 0x04	; 4
    3d46:	07 c0       	rjmp	.+14     	; 0x3d56 <vfprintf+0x534>
    3d48:	24 ff       	sbrs	r18, 4
    3d4a:	08 c0       	rjmp	.+16     	; 0x3d5c <vfprintf+0x53a>
    3d4c:	06 60       	ori	r16, 0x06	; 6
    3d4e:	06 c0       	rjmp	.+12     	; 0x3d5c <vfprintf+0x53a>
    3d50:	28 e0       	ldi	r18, 0x08	; 8
    3d52:	30 e0       	ldi	r19, 0x00	; 0
    3d54:	05 c0       	rjmp	.+10     	; 0x3d60 <vfprintf+0x53e>
    3d56:	20 e1       	ldi	r18, 0x10	; 16
    3d58:	30 e0       	ldi	r19, 0x00	; 0
    3d5a:	02 c0       	rjmp	.+4      	; 0x3d60 <vfprintf+0x53e>
    3d5c:	20 e1       	ldi	r18, 0x10	; 16
    3d5e:	32 e0       	ldi	r19, 0x02	; 2
    3d60:	52 01       	movw	r10, r4
    3d62:	07 ff       	sbrs	r16, 7
    3d64:	09 c0       	rjmp	.+18     	; 0x3d78 <vfprintf+0x556>
    3d66:	f4 e0       	ldi	r31, 0x04	; 4
    3d68:	af 0e       	add	r10, r31
    3d6a:	b1 1c       	adc	r11, r1
    3d6c:	f2 01       	movw	r30, r4
    3d6e:	60 81       	ld	r22, Z
    3d70:	71 81       	ldd	r23, Z+1	; 0x01
    3d72:	82 81       	ldd	r24, Z+2	; 0x02
    3d74:	93 81       	ldd	r25, Z+3	; 0x03
    3d76:	08 c0       	rjmp	.+16     	; 0x3d88 <vfprintf+0x566>
    3d78:	f2 e0       	ldi	r31, 0x02	; 2
    3d7a:	af 0e       	add	r10, r31
    3d7c:	b1 1c       	adc	r11, r1
    3d7e:	f2 01       	movw	r30, r4
    3d80:	60 81       	ld	r22, Z
    3d82:	71 81       	ldd	r23, Z+1	; 0x01
    3d84:	80 e0       	ldi	r24, 0x00	; 0
    3d86:	90 e0       	ldi	r25, 0x00	; 0
    3d88:	a3 01       	movw	r20, r6
    3d8a:	0e 94 93 26 	call	0x4d26	; 0x4d26 <__ultoa_invert>
    3d8e:	e8 2e       	mov	r14, r24
    3d90:	e6 18       	sub	r14, r6
    3d92:	0f 77       	andi	r16, 0x7F	; 127
    3d94:	30 2e       	mov	r3, r16
    3d96:	36 fe       	sbrs	r3, 6
    3d98:	0b c0       	rjmp	.+22     	; 0x3db0 <vfprintf+0x58e>
    3d9a:	33 2d       	mov	r19, r3
    3d9c:	3e 7f       	andi	r19, 0xFE	; 254
    3d9e:	e1 16       	cp	r14, r17
    3da0:	50 f4       	brcc	.+20     	; 0x3db6 <vfprintf+0x594>
    3da2:	34 fe       	sbrs	r3, 4
    3da4:	0a c0       	rjmp	.+20     	; 0x3dba <vfprintf+0x598>
    3da6:	32 fc       	sbrc	r3, 2
    3da8:	08 c0       	rjmp	.+16     	; 0x3dba <vfprintf+0x598>
    3daa:	33 2d       	mov	r19, r3
    3dac:	3e 7e       	andi	r19, 0xEE	; 238
    3dae:	05 c0       	rjmp	.+10     	; 0x3dba <vfprintf+0x598>
    3db0:	0e 2d       	mov	r16, r14
    3db2:	33 2d       	mov	r19, r3
    3db4:	03 c0       	rjmp	.+6      	; 0x3dbc <vfprintf+0x59a>
    3db6:	0e 2d       	mov	r16, r14
    3db8:	01 c0       	rjmp	.+2      	; 0x3dbc <vfprintf+0x59a>
    3dba:	01 2f       	mov	r16, r17
    3dbc:	34 ff       	sbrs	r19, 4
    3dbe:	0c c0       	rjmp	.+24     	; 0x3dd8 <vfprintf+0x5b6>
    3dc0:	fe 01       	movw	r30, r28
    3dc2:	ee 0d       	add	r30, r14
    3dc4:	f1 1d       	adc	r31, r1
    3dc6:	80 81       	ld	r24, Z
    3dc8:	80 33       	cpi	r24, 0x30	; 48
    3dca:	11 f4       	brne	.+4      	; 0x3dd0 <vfprintf+0x5ae>
    3dcc:	39 7e       	andi	r19, 0xE9	; 233
    3dce:	08 c0       	rjmp	.+16     	; 0x3de0 <vfprintf+0x5be>
    3dd0:	32 ff       	sbrs	r19, 2
    3dd2:	05 c0       	rjmp	.+10     	; 0x3dde <vfprintf+0x5bc>
    3dd4:	0e 5f       	subi	r16, 0xFE	; 254
    3dd6:	04 c0       	rjmp	.+8      	; 0x3de0 <vfprintf+0x5be>
    3dd8:	83 2f       	mov	r24, r19
    3dda:	86 78       	andi	r24, 0x86	; 134
    3ddc:	09 f0       	breq	.+2      	; 0x3de0 <vfprintf+0x5be>
    3dde:	0f 5f       	subi	r16, 0xFF	; 255
    3de0:	33 fd       	sbrc	r19, 3
    3de2:	13 c0       	rjmp	.+38     	; 0x3e0a <vfprintf+0x5e8>
    3de4:	30 ff       	sbrs	r19, 0
    3de6:	06 c0       	rjmp	.+12     	; 0x3df4 <vfprintf+0x5d2>
    3de8:	1e 2d       	mov	r17, r14
    3dea:	0f 15       	cp	r16, r15
    3dec:	18 f4       	brcc	.+6      	; 0x3df4 <vfprintf+0x5d2>
    3dee:	1f 0d       	add	r17, r15
    3df0:	10 1b       	sub	r17, r16
    3df2:	0f 2d       	mov	r16, r15
    3df4:	0f 15       	cp	r16, r15
    3df6:	68 f4       	brcc	.+26     	; 0x3e12 <vfprintf+0x5f0>
    3df8:	b6 01       	movw	r22, r12
    3dfa:	80 e2       	ldi	r24, 0x20	; 32
    3dfc:	90 e0       	ldi	r25, 0x00	; 0
    3dfe:	3b 8b       	std	Y+19, r19	; 0x13
    3e00:	0e 94 2b 26 	call	0x4c56	; 0x4c56 <fputc>
    3e04:	0f 5f       	subi	r16, 0xFF	; 255
    3e06:	3b 89       	ldd	r19, Y+19	; 0x13
    3e08:	f5 cf       	rjmp	.-22     	; 0x3df4 <vfprintf+0x5d2>
    3e0a:	0f 15       	cp	r16, r15
    3e0c:	10 f4       	brcc	.+4      	; 0x3e12 <vfprintf+0x5f0>
    3e0e:	f0 1a       	sub	r15, r16
    3e10:	01 c0       	rjmp	.+2      	; 0x3e14 <vfprintf+0x5f2>
    3e12:	f1 2c       	mov	r15, r1
    3e14:	34 ff       	sbrs	r19, 4
    3e16:	12 c0       	rjmp	.+36     	; 0x3e3c <vfprintf+0x61a>
    3e18:	b6 01       	movw	r22, r12
    3e1a:	80 e3       	ldi	r24, 0x30	; 48
    3e1c:	90 e0       	ldi	r25, 0x00	; 0
    3e1e:	3b 8b       	std	Y+19, r19	; 0x13
    3e20:	0e 94 2b 26 	call	0x4c56	; 0x4c56 <fputc>
    3e24:	3b 89       	ldd	r19, Y+19	; 0x13
    3e26:	32 ff       	sbrs	r19, 2
    3e28:	17 c0       	rjmp	.+46     	; 0x3e58 <vfprintf+0x636>
    3e2a:	31 fd       	sbrc	r19, 1
    3e2c:	03 c0       	rjmp	.+6      	; 0x3e34 <vfprintf+0x612>
    3e2e:	88 e7       	ldi	r24, 0x78	; 120
    3e30:	90 e0       	ldi	r25, 0x00	; 0
    3e32:	02 c0       	rjmp	.+4      	; 0x3e38 <vfprintf+0x616>
    3e34:	88 e5       	ldi	r24, 0x58	; 88
    3e36:	90 e0       	ldi	r25, 0x00	; 0
    3e38:	b6 01       	movw	r22, r12
    3e3a:	0c c0       	rjmp	.+24     	; 0x3e54 <vfprintf+0x632>
    3e3c:	83 2f       	mov	r24, r19
    3e3e:	86 78       	andi	r24, 0x86	; 134
    3e40:	59 f0       	breq	.+22     	; 0x3e58 <vfprintf+0x636>
    3e42:	31 ff       	sbrs	r19, 1
    3e44:	02 c0       	rjmp	.+4      	; 0x3e4a <vfprintf+0x628>
    3e46:	8b e2       	ldi	r24, 0x2B	; 43
    3e48:	01 c0       	rjmp	.+2      	; 0x3e4c <vfprintf+0x62a>
    3e4a:	80 e2       	ldi	r24, 0x20	; 32
    3e4c:	37 fd       	sbrc	r19, 7
    3e4e:	8d e2       	ldi	r24, 0x2D	; 45
    3e50:	b6 01       	movw	r22, r12
    3e52:	90 e0       	ldi	r25, 0x00	; 0
    3e54:	0e 94 2b 26 	call	0x4c56	; 0x4c56 <fputc>
    3e58:	e1 16       	cp	r14, r17
    3e5a:	38 f4       	brcc	.+14     	; 0x3e6a <vfprintf+0x648>
    3e5c:	b6 01       	movw	r22, r12
    3e5e:	80 e3       	ldi	r24, 0x30	; 48
    3e60:	90 e0       	ldi	r25, 0x00	; 0
    3e62:	0e 94 2b 26 	call	0x4c56	; 0x4c56 <fputc>
    3e66:	11 50       	subi	r17, 0x01	; 1
    3e68:	f7 cf       	rjmp	.-18     	; 0x3e58 <vfprintf+0x636>
    3e6a:	ea 94       	dec	r14
    3e6c:	f3 01       	movw	r30, r6
    3e6e:	ee 0d       	add	r30, r14
    3e70:	f1 1d       	adc	r31, r1
    3e72:	80 81       	ld	r24, Z
    3e74:	b6 01       	movw	r22, r12
    3e76:	90 e0       	ldi	r25, 0x00	; 0
    3e78:	0e 94 2b 26 	call	0x4c56	; 0x4c56 <fputc>
    3e7c:	e1 10       	cpse	r14, r1
    3e7e:	f5 cf       	rjmp	.-22     	; 0x3e6a <vfprintf+0x648>
    3e80:	14 c0       	rjmp	.+40     	; 0x3eaa <vfprintf+0x688>
    3e82:	f4 e0       	ldi	r31, 0x04	; 4
    3e84:	ff 15       	cp	r31, r15
    3e86:	58 f5       	brcc	.+86     	; 0x3ede <vfprintf+0x6bc>
    3e88:	84 e0       	ldi	r24, 0x04	; 4
    3e8a:	f8 1a       	sub	r15, r24
    3e8c:	33 fe       	sbrs	r3, 3
    3e8e:	1e c0       	rjmp	.+60     	; 0x3ecc <vfprintf+0x6aa>
    3e90:	21 10       	cpse	r2, r1
    3e92:	26 c0       	rjmp	.+76     	; 0x3ee0 <vfprintf+0x6be>
    3e94:	03 ff       	sbrs	r16, 3
    3e96:	2a c0       	rjmp	.+84     	; 0x3eec <vfprintf+0x6ca>
    3e98:	0e ef       	ldi	r16, 0xFE	; 254
    3e9a:	10 e0       	ldi	r17, 0x00	; 0
    3e9c:	f3 2d       	mov	r31, r3
    3e9e:	f0 71       	andi	r31, 0x10	; 16
    3ea0:	3f 2e       	mov	r3, r31
    3ea2:	f8 01       	movw	r30, r16
    3ea4:	84 91       	lpm	r24, Z
    3ea6:	81 11       	cpse	r24, r1
    3ea8:	24 c0       	rjmp	.+72     	; 0x3ef2 <vfprintf+0x6d0>
    3eaa:	ff 20       	and	r15, r15
    3eac:	09 f4       	brne	.+2      	; 0x3eb0 <vfprintf+0x68e>
    3eae:	e5 cc       	rjmp	.-1590   	; 0x387a <vfprintf+0x58>
    3eb0:	b6 01       	movw	r22, r12
    3eb2:	80 e2       	ldi	r24, 0x20	; 32
    3eb4:	90 e0       	ldi	r25, 0x00	; 0
    3eb6:	0e 94 2b 26 	call	0x4c56	; 0x4c56 <fputc>
    3eba:	fa 94       	dec	r15
    3ebc:	f6 cf       	rjmp	.-20     	; 0x3eaa <vfprintf+0x688>
    3ebe:	f6 01       	movw	r30, r12
    3ec0:	86 81       	ldd	r24, Z+6	; 0x06
    3ec2:	97 81       	ldd	r25, Z+7	; 0x07
    3ec4:	26 c0       	rjmp	.+76     	; 0x3f12 <vfprintf+0x6f0>
    3ec6:	8f ef       	ldi	r24, 0xFF	; 255
    3ec8:	9f ef       	ldi	r25, 0xFF	; 255
    3eca:	23 c0       	rjmp	.+70     	; 0x3f12 <vfprintf+0x6f0>
    3ecc:	b6 01       	movw	r22, r12
    3ece:	80 e2       	ldi	r24, 0x20	; 32
    3ed0:	90 e0       	ldi	r25, 0x00	; 0
    3ed2:	0e 94 2b 26 	call	0x4c56	; 0x4c56 <fputc>
    3ed6:	fa 94       	dec	r15
    3ed8:	f1 10       	cpse	r15, r1
    3eda:	f8 cf       	rjmp	.-16     	; 0x3ecc <vfprintf+0x6aa>
    3edc:	d9 cf       	rjmp	.-78     	; 0x3e90 <vfprintf+0x66e>
    3ede:	f1 2c       	mov	r15, r1
    3ee0:	b6 01       	movw	r22, r12
    3ee2:	82 2d       	mov	r24, r2
    3ee4:	90 e0       	ldi	r25, 0x00	; 0
    3ee6:	0e 94 2b 26 	call	0x4c56	; 0x4c56 <fputc>
    3eea:	d4 cf       	rjmp	.-88     	; 0x3e94 <vfprintf+0x672>
    3eec:	02 e0       	ldi	r16, 0x02	; 2
    3eee:	11 e0       	ldi	r17, 0x01	; 1
    3ef0:	d5 cf       	rjmp	.-86     	; 0x3e9c <vfprintf+0x67a>
    3ef2:	31 10       	cpse	r3, r1
    3ef4:	80 52       	subi	r24, 0x20	; 32
    3ef6:	b6 01       	movw	r22, r12
    3ef8:	90 e0       	ldi	r25, 0x00	; 0
    3efa:	0e 94 2b 26 	call	0x4c56	; 0x4c56 <fputc>
    3efe:	0f 5f       	subi	r16, 0xFF	; 255
    3f00:	1f 4f       	sbci	r17, 0xFF	; 255
    3f02:	cf cf       	rjmp	.-98     	; 0x3ea2 <vfprintf+0x680>
    3f04:	23 e0       	ldi	r18, 0x03	; 3
    3f06:	2f 15       	cp	r18, r15
    3f08:	10 f4       	brcc	.+4      	; 0x3f0e <vfprintf+0x6ec>
    3f0a:	83 e0       	ldi	r24, 0x03	; 3
    3f0c:	be cf       	rjmp	.-132    	; 0x3e8a <vfprintf+0x668>
    3f0e:	f1 2c       	mov	r15, r1
    3f10:	c1 cf       	rjmp	.-126    	; 0x3e94 <vfprintf+0x672>
    3f12:	63 96       	adiw	r28, 0x13	; 19
    3f14:	e2 e1       	ldi	r30, 0x12	; 18
    3f16:	0c 94 f5 23 	jmp	0x47ea	; 0x47ea <__epilogue_restores__>

00003f1a <__subsf3>:
    3f1a:	50 58       	subi	r21, 0x80	; 128

00003f1c <__addsf3>:
    3f1c:	bb 27       	eor	r27, r27
    3f1e:	aa 27       	eor	r26, r26
    3f20:	0e 94 a5 1f 	call	0x3f4a	; 0x3f4a <__addsf3x>
    3f24:	0c 94 1f 21 	jmp	0x423e	; 0x423e <__fp_round>
    3f28:	0e 94 11 21 	call	0x4222	; 0x4222 <__fp_pscA>
    3f2c:	38 f0       	brcs	.+14     	; 0x3f3c <__addsf3+0x20>
    3f2e:	0e 94 18 21 	call	0x4230	; 0x4230 <__fp_pscB>
    3f32:	20 f0       	brcs	.+8      	; 0x3f3c <__addsf3+0x20>
    3f34:	39 f4       	brne	.+14     	; 0x3f44 <__addsf3+0x28>
    3f36:	9f 3f       	cpi	r25, 0xFF	; 255
    3f38:	19 f4       	brne	.+6      	; 0x3f40 <__addsf3+0x24>
    3f3a:	26 f4       	brtc	.+8      	; 0x3f44 <__addsf3+0x28>
    3f3c:	0c 94 0e 21 	jmp	0x421c	; 0x421c <__fp_nan>
    3f40:	0e f4       	brtc	.+2      	; 0x3f44 <__addsf3+0x28>
    3f42:	e0 95       	com	r30
    3f44:	e7 fb       	bst	r30, 7
    3f46:	0c 94 08 21 	jmp	0x4210	; 0x4210 <__fp_inf>

00003f4a <__addsf3x>:
    3f4a:	e9 2f       	mov	r30, r25
    3f4c:	0e 94 30 21 	call	0x4260	; 0x4260 <__fp_split3>
    3f50:	58 f3       	brcs	.-42     	; 0x3f28 <__addsf3+0xc>
    3f52:	ba 17       	cp	r27, r26
    3f54:	62 07       	cpc	r22, r18
    3f56:	73 07       	cpc	r23, r19
    3f58:	84 07       	cpc	r24, r20
    3f5a:	95 07       	cpc	r25, r21
    3f5c:	20 f0       	brcs	.+8      	; 0x3f66 <__addsf3x+0x1c>
    3f5e:	79 f4       	brne	.+30     	; 0x3f7e <__addsf3x+0x34>
    3f60:	a6 f5       	brtc	.+104    	; 0x3fca <__addsf3x+0x80>
    3f62:	0c 94 52 21 	jmp	0x42a4	; 0x42a4 <__fp_zero>
    3f66:	0e f4       	brtc	.+2      	; 0x3f6a <__addsf3x+0x20>
    3f68:	e0 95       	com	r30
    3f6a:	0b 2e       	mov	r0, r27
    3f6c:	ba 2f       	mov	r27, r26
    3f6e:	a0 2d       	mov	r26, r0
    3f70:	0b 01       	movw	r0, r22
    3f72:	b9 01       	movw	r22, r18
    3f74:	90 01       	movw	r18, r0
    3f76:	0c 01       	movw	r0, r24
    3f78:	ca 01       	movw	r24, r20
    3f7a:	a0 01       	movw	r20, r0
    3f7c:	11 24       	eor	r1, r1
    3f7e:	ff 27       	eor	r31, r31
    3f80:	59 1b       	sub	r21, r25
    3f82:	99 f0       	breq	.+38     	; 0x3faa <__addsf3x+0x60>
    3f84:	59 3f       	cpi	r21, 0xF9	; 249
    3f86:	50 f4       	brcc	.+20     	; 0x3f9c <__addsf3x+0x52>
    3f88:	50 3e       	cpi	r21, 0xE0	; 224
    3f8a:	68 f1       	brcs	.+90     	; 0x3fe6 <__addsf3x+0x9c>
    3f8c:	1a 16       	cp	r1, r26
    3f8e:	f0 40       	sbci	r31, 0x00	; 0
    3f90:	a2 2f       	mov	r26, r18
    3f92:	23 2f       	mov	r18, r19
    3f94:	34 2f       	mov	r19, r20
    3f96:	44 27       	eor	r20, r20
    3f98:	58 5f       	subi	r21, 0xF8	; 248
    3f9a:	f3 cf       	rjmp	.-26     	; 0x3f82 <__addsf3x+0x38>
    3f9c:	46 95       	lsr	r20
    3f9e:	37 95       	ror	r19
    3fa0:	27 95       	ror	r18
    3fa2:	a7 95       	ror	r26
    3fa4:	f0 40       	sbci	r31, 0x00	; 0
    3fa6:	53 95       	inc	r21
    3fa8:	c9 f7       	brne	.-14     	; 0x3f9c <__addsf3x+0x52>
    3faa:	7e f4       	brtc	.+30     	; 0x3fca <__addsf3x+0x80>
    3fac:	1f 16       	cp	r1, r31
    3fae:	ba 0b       	sbc	r27, r26
    3fb0:	62 0b       	sbc	r22, r18
    3fb2:	73 0b       	sbc	r23, r19
    3fb4:	84 0b       	sbc	r24, r20
    3fb6:	ba f0       	brmi	.+46     	; 0x3fe6 <__addsf3x+0x9c>
    3fb8:	91 50       	subi	r25, 0x01	; 1
    3fba:	a1 f0       	breq	.+40     	; 0x3fe4 <__addsf3x+0x9a>
    3fbc:	ff 0f       	add	r31, r31
    3fbe:	bb 1f       	adc	r27, r27
    3fc0:	66 1f       	adc	r22, r22
    3fc2:	77 1f       	adc	r23, r23
    3fc4:	88 1f       	adc	r24, r24
    3fc6:	c2 f7       	brpl	.-16     	; 0x3fb8 <__addsf3x+0x6e>
    3fc8:	0e c0       	rjmp	.+28     	; 0x3fe6 <__addsf3x+0x9c>
    3fca:	ba 0f       	add	r27, r26
    3fcc:	62 1f       	adc	r22, r18
    3fce:	73 1f       	adc	r23, r19
    3fd0:	84 1f       	adc	r24, r20
    3fd2:	48 f4       	brcc	.+18     	; 0x3fe6 <__addsf3x+0x9c>
    3fd4:	87 95       	ror	r24
    3fd6:	77 95       	ror	r23
    3fd8:	67 95       	ror	r22
    3fda:	b7 95       	ror	r27
    3fdc:	f7 95       	ror	r31
    3fde:	9e 3f       	cpi	r25, 0xFE	; 254
    3fe0:	08 f0       	brcs	.+2      	; 0x3fe4 <__addsf3x+0x9a>
    3fe2:	b0 cf       	rjmp	.-160    	; 0x3f44 <__addsf3+0x28>
    3fe4:	93 95       	inc	r25
    3fe6:	88 0f       	add	r24, r24
    3fe8:	08 f0       	brcs	.+2      	; 0x3fec <__addsf3x+0xa2>
    3fea:	99 27       	eor	r25, r25
    3fec:	ee 0f       	add	r30, r30
    3fee:	97 95       	ror	r25
    3ff0:	87 95       	ror	r24
    3ff2:	08 95       	ret

00003ff4 <__cmpsf2>:
    3ff4:	0e 94 e4 20 	call	0x41c8	; 0x41c8 <__fp_cmp>
    3ff8:	08 f4       	brcc	.+2      	; 0x3ffc <__cmpsf2+0x8>
    3ffa:	81 e0       	ldi	r24, 0x01	; 1
    3ffc:	08 95       	ret

00003ffe <__divsf3>:
    3ffe:	0e 94 13 20 	call	0x4026	; 0x4026 <__divsf3x>
    4002:	0c 94 1f 21 	jmp	0x423e	; 0x423e <__fp_round>
    4006:	0e 94 18 21 	call	0x4230	; 0x4230 <__fp_pscB>
    400a:	58 f0       	brcs	.+22     	; 0x4022 <__divsf3+0x24>
    400c:	0e 94 11 21 	call	0x4222	; 0x4222 <__fp_pscA>
    4010:	40 f0       	brcs	.+16     	; 0x4022 <__divsf3+0x24>
    4012:	29 f4       	brne	.+10     	; 0x401e <__divsf3+0x20>
    4014:	5f 3f       	cpi	r21, 0xFF	; 255
    4016:	29 f0       	breq	.+10     	; 0x4022 <__divsf3+0x24>
    4018:	0c 94 08 21 	jmp	0x4210	; 0x4210 <__fp_inf>
    401c:	51 11       	cpse	r21, r1
    401e:	0c 94 53 21 	jmp	0x42a6	; 0x42a6 <__fp_szero>
    4022:	0c 94 0e 21 	jmp	0x421c	; 0x421c <__fp_nan>

00004026 <__divsf3x>:
    4026:	0e 94 30 21 	call	0x4260	; 0x4260 <__fp_split3>
    402a:	68 f3       	brcs	.-38     	; 0x4006 <__divsf3+0x8>

0000402c <__divsf3_pse>:
    402c:	99 23       	and	r25, r25
    402e:	b1 f3       	breq	.-20     	; 0x401c <__divsf3+0x1e>
    4030:	55 23       	and	r21, r21
    4032:	91 f3       	breq	.-28     	; 0x4018 <__divsf3+0x1a>
    4034:	95 1b       	sub	r25, r21
    4036:	55 0b       	sbc	r21, r21
    4038:	bb 27       	eor	r27, r27
    403a:	aa 27       	eor	r26, r26
    403c:	62 17       	cp	r22, r18
    403e:	73 07       	cpc	r23, r19
    4040:	84 07       	cpc	r24, r20
    4042:	38 f0       	brcs	.+14     	; 0x4052 <__divsf3_pse+0x26>
    4044:	9f 5f       	subi	r25, 0xFF	; 255
    4046:	5f 4f       	sbci	r21, 0xFF	; 255
    4048:	22 0f       	add	r18, r18
    404a:	33 1f       	adc	r19, r19
    404c:	44 1f       	adc	r20, r20
    404e:	aa 1f       	adc	r26, r26
    4050:	a9 f3       	breq	.-22     	; 0x403c <__divsf3_pse+0x10>
    4052:	35 d0       	rcall	.+106    	; 0x40be <__divsf3_pse+0x92>
    4054:	0e 2e       	mov	r0, r30
    4056:	3a f0       	brmi	.+14     	; 0x4066 <__divsf3_pse+0x3a>
    4058:	e0 e8       	ldi	r30, 0x80	; 128
    405a:	32 d0       	rcall	.+100    	; 0x40c0 <__divsf3_pse+0x94>
    405c:	91 50       	subi	r25, 0x01	; 1
    405e:	50 40       	sbci	r21, 0x00	; 0
    4060:	e6 95       	lsr	r30
    4062:	00 1c       	adc	r0, r0
    4064:	ca f7       	brpl	.-14     	; 0x4058 <__divsf3_pse+0x2c>
    4066:	2b d0       	rcall	.+86     	; 0x40be <__divsf3_pse+0x92>
    4068:	fe 2f       	mov	r31, r30
    406a:	29 d0       	rcall	.+82     	; 0x40be <__divsf3_pse+0x92>
    406c:	66 0f       	add	r22, r22
    406e:	77 1f       	adc	r23, r23
    4070:	88 1f       	adc	r24, r24
    4072:	bb 1f       	adc	r27, r27
    4074:	26 17       	cp	r18, r22
    4076:	37 07       	cpc	r19, r23
    4078:	48 07       	cpc	r20, r24
    407a:	ab 07       	cpc	r26, r27
    407c:	b0 e8       	ldi	r27, 0x80	; 128
    407e:	09 f0       	breq	.+2      	; 0x4082 <__divsf3_pse+0x56>
    4080:	bb 0b       	sbc	r27, r27
    4082:	80 2d       	mov	r24, r0
    4084:	bf 01       	movw	r22, r30
    4086:	ff 27       	eor	r31, r31
    4088:	93 58       	subi	r25, 0x83	; 131
    408a:	5f 4f       	sbci	r21, 0xFF	; 255
    408c:	3a f0       	brmi	.+14     	; 0x409c <__divsf3_pse+0x70>
    408e:	9e 3f       	cpi	r25, 0xFE	; 254
    4090:	51 05       	cpc	r21, r1
    4092:	78 f0       	brcs	.+30     	; 0x40b2 <__divsf3_pse+0x86>
    4094:	0c 94 08 21 	jmp	0x4210	; 0x4210 <__fp_inf>
    4098:	0c 94 53 21 	jmp	0x42a6	; 0x42a6 <__fp_szero>
    409c:	5f 3f       	cpi	r21, 0xFF	; 255
    409e:	e4 f3       	brlt	.-8      	; 0x4098 <__divsf3_pse+0x6c>
    40a0:	98 3e       	cpi	r25, 0xE8	; 232
    40a2:	d4 f3       	brlt	.-12     	; 0x4098 <__divsf3_pse+0x6c>
    40a4:	86 95       	lsr	r24
    40a6:	77 95       	ror	r23
    40a8:	67 95       	ror	r22
    40aa:	b7 95       	ror	r27
    40ac:	f7 95       	ror	r31
    40ae:	9f 5f       	subi	r25, 0xFF	; 255
    40b0:	c9 f7       	brne	.-14     	; 0x40a4 <__divsf3_pse+0x78>
    40b2:	88 0f       	add	r24, r24
    40b4:	91 1d       	adc	r25, r1
    40b6:	96 95       	lsr	r25
    40b8:	87 95       	ror	r24
    40ba:	97 f9       	bld	r25, 7
    40bc:	08 95       	ret
    40be:	e1 e0       	ldi	r30, 0x01	; 1
    40c0:	66 0f       	add	r22, r22
    40c2:	77 1f       	adc	r23, r23
    40c4:	88 1f       	adc	r24, r24
    40c6:	bb 1f       	adc	r27, r27
    40c8:	62 17       	cp	r22, r18
    40ca:	73 07       	cpc	r23, r19
    40cc:	84 07       	cpc	r24, r20
    40ce:	ba 07       	cpc	r27, r26
    40d0:	20 f0       	brcs	.+8      	; 0x40da <__divsf3_pse+0xae>
    40d2:	62 1b       	sub	r22, r18
    40d4:	73 0b       	sbc	r23, r19
    40d6:	84 0b       	sbc	r24, r20
    40d8:	ba 0b       	sbc	r27, r26
    40da:	ee 1f       	adc	r30, r30
    40dc:	88 f7       	brcc	.-30     	; 0x40c0 <__divsf3_pse+0x94>
    40de:	e0 95       	com	r30
    40e0:	08 95       	ret

000040e2 <__fixsfsi>:
    40e2:	0e 94 78 20 	call	0x40f0	; 0x40f0 <__fixunssfsi>
    40e6:	68 94       	set
    40e8:	b1 11       	cpse	r27, r1
    40ea:	0c 94 53 21 	jmp	0x42a6	; 0x42a6 <__fp_szero>
    40ee:	08 95       	ret

000040f0 <__fixunssfsi>:
    40f0:	0e 94 38 21 	call	0x4270	; 0x4270 <__fp_splitA>
    40f4:	88 f0       	brcs	.+34     	; 0x4118 <__fixunssfsi+0x28>
    40f6:	9f 57       	subi	r25, 0x7F	; 127
    40f8:	98 f0       	brcs	.+38     	; 0x4120 <__fixunssfsi+0x30>
    40fa:	b9 2f       	mov	r27, r25
    40fc:	99 27       	eor	r25, r25
    40fe:	b7 51       	subi	r27, 0x17	; 23
    4100:	b0 f0       	brcs	.+44     	; 0x412e <__fixunssfsi+0x3e>
    4102:	e1 f0       	breq	.+56     	; 0x413c <__fixunssfsi+0x4c>
    4104:	66 0f       	add	r22, r22
    4106:	77 1f       	adc	r23, r23
    4108:	88 1f       	adc	r24, r24
    410a:	99 1f       	adc	r25, r25
    410c:	1a f0       	brmi	.+6      	; 0x4114 <__fixunssfsi+0x24>
    410e:	ba 95       	dec	r27
    4110:	c9 f7       	brne	.-14     	; 0x4104 <__fixunssfsi+0x14>
    4112:	14 c0       	rjmp	.+40     	; 0x413c <__fixunssfsi+0x4c>
    4114:	b1 30       	cpi	r27, 0x01	; 1
    4116:	91 f0       	breq	.+36     	; 0x413c <__fixunssfsi+0x4c>
    4118:	0e 94 52 21 	call	0x42a4	; 0x42a4 <__fp_zero>
    411c:	b1 e0       	ldi	r27, 0x01	; 1
    411e:	08 95       	ret
    4120:	0c 94 52 21 	jmp	0x42a4	; 0x42a4 <__fp_zero>
    4124:	67 2f       	mov	r22, r23
    4126:	78 2f       	mov	r23, r24
    4128:	88 27       	eor	r24, r24
    412a:	b8 5f       	subi	r27, 0xF8	; 248
    412c:	39 f0       	breq	.+14     	; 0x413c <__fixunssfsi+0x4c>
    412e:	b9 3f       	cpi	r27, 0xF9	; 249
    4130:	cc f3       	brlt	.-14     	; 0x4124 <__fixunssfsi+0x34>
    4132:	86 95       	lsr	r24
    4134:	77 95       	ror	r23
    4136:	67 95       	ror	r22
    4138:	b3 95       	inc	r27
    413a:	d9 f7       	brne	.-10     	; 0x4132 <__fixunssfsi+0x42>
    413c:	3e f4       	brtc	.+14     	; 0x414c <__fixunssfsi+0x5c>
    413e:	90 95       	com	r25
    4140:	80 95       	com	r24
    4142:	70 95       	com	r23
    4144:	61 95       	neg	r22
    4146:	7f 4f       	sbci	r23, 0xFF	; 255
    4148:	8f 4f       	sbci	r24, 0xFF	; 255
    414a:	9f 4f       	sbci	r25, 0xFF	; 255
    414c:	08 95       	ret

0000414e <__floatunsisf>:
    414e:	e8 94       	clt
    4150:	09 c0       	rjmp	.+18     	; 0x4164 <__floatsisf+0x12>

00004152 <__floatsisf>:
    4152:	97 fb       	bst	r25, 7
    4154:	3e f4       	brtc	.+14     	; 0x4164 <__floatsisf+0x12>
    4156:	90 95       	com	r25
    4158:	80 95       	com	r24
    415a:	70 95       	com	r23
    415c:	61 95       	neg	r22
    415e:	7f 4f       	sbci	r23, 0xFF	; 255
    4160:	8f 4f       	sbci	r24, 0xFF	; 255
    4162:	9f 4f       	sbci	r25, 0xFF	; 255
    4164:	99 23       	and	r25, r25
    4166:	a9 f0       	breq	.+42     	; 0x4192 <__floatsisf+0x40>
    4168:	f9 2f       	mov	r31, r25
    416a:	96 e9       	ldi	r25, 0x96	; 150
    416c:	bb 27       	eor	r27, r27
    416e:	93 95       	inc	r25
    4170:	f6 95       	lsr	r31
    4172:	87 95       	ror	r24
    4174:	77 95       	ror	r23
    4176:	67 95       	ror	r22
    4178:	b7 95       	ror	r27
    417a:	f1 11       	cpse	r31, r1
    417c:	f8 cf       	rjmp	.-16     	; 0x416e <__floatsisf+0x1c>
    417e:	fa f4       	brpl	.+62     	; 0x41be <__floatsisf+0x6c>
    4180:	bb 0f       	add	r27, r27
    4182:	11 f4       	brne	.+4      	; 0x4188 <__floatsisf+0x36>
    4184:	60 ff       	sbrs	r22, 0
    4186:	1b c0       	rjmp	.+54     	; 0x41be <__floatsisf+0x6c>
    4188:	6f 5f       	subi	r22, 0xFF	; 255
    418a:	7f 4f       	sbci	r23, 0xFF	; 255
    418c:	8f 4f       	sbci	r24, 0xFF	; 255
    418e:	9f 4f       	sbci	r25, 0xFF	; 255
    4190:	16 c0       	rjmp	.+44     	; 0x41be <__floatsisf+0x6c>
    4192:	88 23       	and	r24, r24
    4194:	11 f0       	breq	.+4      	; 0x419a <__floatsisf+0x48>
    4196:	96 e9       	ldi	r25, 0x96	; 150
    4198:	11 c0       	rjmp	.+34     	; 0x41bc <__floatsisf+0x6a>
    419a:	77 23       	and	r23, r23
    419c:	21 f0       	breq	.+8      	; 0x41a6 <__floatsisf+0x54>
    419e:	9e e8       	ldi	r25, 0x8E	; 142
    41a0:	87 2f       	mov	r24, r23
    41a2:	76 2f       	mov	r23, r22
    41a4:	05 c0       	rjmp	.+10     	; 0x41b0 <__floatsisf+0x5e>
    41a6:	66 23       	and	r22, r22
    41a8:	71 f0       	breq	.+28     	; 0x41c6 <__floatsisf+0x74>
    41aa:	96 e8       	ldi	r25, 0x86	; 134
    41ac:	86 2f       	mov	r24, r22
    41ae:	70 e0       	ldi	r23, 0x00	; 0
    41b0:	60 e0       	ldi	r22, 0x00	; 0
    41b2:	2a f0       	brmi	.+10     	; 0x41be <__floatsisf+0x6c>
    41b4:	9a 95       	dec	r25
    41b6:	66 0f       	add	r22, r22
    41b8:	77 1f       	adc	r23, r23
    41ba:	88 1f       	adc	r24, r24
    41bc:	da f7       	brpl	.-10     	; 0x41b4 <__floatsisf+0x62>
    41be:	88 0f       	add	r24, r24
    41c0:	96 95       	lsr	r25
    41c2:	87 95       	ror	r24
    41c4:	97 f9       	bld	r25, 7
    41c6:	08 95       	ret

000041c8 <__fp_cmp>:
    41c8:	99 0f       	add	r25, r25
    41ca:	00 08       	sbc	r0, r0
    41cc:	55 0f       	add	r21, r21
    41ce:	aa 0b       	sbc	r26, r26
    41d0:	e0 e8       	ldi	r30, 0x80	; 128
    41d2:	fe ef       	ldi	r31, 0xFE	; 254
    41d4:	16 16       	cp	r1, r22
    41d6:	17 06       	cpc	r1, r23
    41d8:	e8 07       	cpc	r30, r24
    41da:	f9 07       	cpc	r31, r25
    41dc:	c0 f0       	brcs	.+48     	; 0x420e <__fp_cmp+0x46>
    41de:	12 16       	cp	r1, r18
    41e0:	13 06       	cpc	r1, r19
    41e2:	e4 07       	cpc	r30, r20
    41e4:	f5 07       	cpc	r31, r21
    41e6:	98 f0       	brcs	.+38     	; 0x420e <__fp_cmp+0x46>
    41e8:	62 1b       	sub	r22, r18
    41ea:	73 0b       	sbc	r23, r19
    41ec:	84 0b       	sbc	r24, r20
    41ee:	95 0b       	sbc	r25, r21
    41f0:	39 f4       	brne	.+14     	; 0x4200 <__fp_cmp+0x38>
    41f2:	0a 26       	eor	r0, r26
    41f4:	61 f0       	breq	.+24     	; 0x420e <__fp_cmp+0x46>
    41f6:	23 2b       	or	r18, r19
    41f8:	24 2b       	or	r18, r20
    41fa:	25 2b       	or	r18, r21
    41fc:	21 f4       	brne	.+8      	; 0x4206 <__fp_cmp+0x3e>
    41fe:	08 95       	ret
    4200:	0a 26       	eor	r0, r26
    4202:	09 f4       	brne	.+2      	; 0x4206 <__fp_cmp+0x3e>
    4204:	a1 40       	sbci	r26, 0x01	; 1
    4206:	a6 95       	lsr	r26
    4208:	8f ef       	ldi	r24, 0xFF	; 255
    420a:	81 1d       	adc	r24, r1
    420c:	81 1d       	adc	r24, r1
    420e:	08 95       	ret

00004210 <__fp_inf>:
    4210:	97 f9       	bld	r25, 7
    4212:	9f 67       	ori	r25, 0x7F	; 127
    4214:	80 e8       	ldi	r24, 0x80	; 128
    4216:	70 e0       	ldi	r23, 0x00	; 0
    4218:	60 e0       	ldi	r22, 0x00	; 0
    421a:	08 95       	ret

0000421c <__fp_nan>:
    421c:	9f ef       	ldi	r25, 0xFF	; 255
    421e:	80 ec       	ldi	r24, 0xC0	; 192
    4220:	08 95       	ret

00004222 <__fp_pscA>:
    4222:	00 24       	eor	r0, r0
    4224:	0a 94       	dec	r0
    4226:	16 16       	cp	r1, r22
    4228:	17 06       	cpc	r1, r23
    422a:	18 06       	cpc	r1, r24
    422c:	09 06       	cpc	r0, r25
    422e:	08 95       	ret

00004230 <__fp_pscB>:
    4230:	00 24       	eor	r0, r0
    4232:	0a 94       	dec	r0
    4234:	12 16       	cp	r1, r18
    4236:	13 06       	cpc	r1, r19
    4238:	14 06       	cpc	r1, r20
    423a:	05 06       	cpc	r0, r21
    423c:	08 95       	ret

0000423e <__fp_round>:
    423e:	09 2e       	mov	r0, r25
    4240:	03 94       	inc	r0
    4242:	00 0c       	add	r0, r0
    4244:	11 f4       	brne	.+4      	; 0x424a <__fp_round+0xc>
    4246:	88 23       	and	r24, r24
    4248:	52 f0       	brmi	.+20     	; 0x425e <__fp_round+0x20>
    424a:	bb 0f       	add	r27, r27
    424c:	40 f4       	brcc	.+16     	; 0x425e <__fp_round+0x20>
    424e:	bf 2b       	or	r27, r31
    4250:	11 f4       	brne	.+4      	; 0x4256 <__fp_round+0x18>
    4252:	60 ff       	sbrs	r22, 0
    4254:	04 c0       	rjmp	.+8      	; 0x425e <__fp_round+0x20>
    4256:	6f 5f       	subi	r22, 0xFF	; 255
    4258:	7f 4f       	sbci	r23, 0xFF	; 255
    425a:	8f 4f       	sbci	r24, 0xFF	; 255
    425c:	9f 4f       	sbci	r25, 0xFF	; 255
    425e:	08 95       	ret

00004260 <__fp_split3>:
    4260:	57 fd       	sbrc	r21, 7
    4262:	90 58       	subi	r25, 0x80	; 128
    4264:	44 0f       	add	r20, r20
    4266:	55 1f       	adc	r21, r21
    4268:	59 f0       	breq	.+22     	; 0x4280 <__fp_splitA+0x10>
    426a:	5f 3f       	cpi	r21, 0xFF	; 255
    426c:	71 f0       	breq	.+28     	; 0x428a <__fp_splitA+0x1a>
    426e:	47 95       	ror	r20

00004270 <__fp_splitA>:
    4270:	88 0f       	add	r24, r24
    4272:	97 fb       	bst	r25, 7
    4274:	99 1f       	adc	r25, r25
    4276:	61 f0       	breq	.+24     	; 0x4290 <__fp_splitA+0x20>
    4278:	9f 3f       	cpi	r25, 0xFF	; 255
    427a:	79 f0       	breq	.+30     	; 0x429a <__fp_splitA+0x2a>
    427c:	87 95       	ror	r24
    427e:	08 95       	ret
    4280:	12 16       	cp	r1, r18
    4282:	13 06       	cpc	r1, r19
    4284:	14 06       	cpc	r1, r20
    4286:	55 1f       	adc	r21, r21
    4288:	f2 cf       	rjmp	.-28     	; 0x426e <__fp_split3+0xe>
    428a:	46 95       	lsr	r20
    428c:	f1 df       	rcall	.-30     	; 0x4270 <__fp_splitA>
    428e:	08 c0       	rjmp	.+16     	; 0x42a0 <__fp_splitA+0x30>
    4290:	16 16       	cp	r1, r22
    4292:	17 06       	cpc	r1, r23
    4294:	18 06       	cpc	r1, r24
    4296:	99 1f       	adc	r25, r25
    4298:	f1 cf       	rjmp	.-30     	; 0x427c <__fp_splitA+0xc>
    429a:	86 95       	lsr	r24
    429c:	71 05       	cpc	r23, r1
    429e:	61 05       	cpc	r22, r1
    42a0:	08 94       	sec
    42a2:	08 95       	ret

000042a4 <__fp_zero>:
    42a4:	e8 94       	clt

000042a6 <__fp_szero>:
    42a6:	bb 27       	eor	r27, r27
    42a8:	66 27       	eor	r22, r22
    42aa:	77 27       	eor	r23, r23
    42ac:	cb 01       	movw	r24, r22
    42ae:	97 f9       	bld	r25, 7
    42b0:	08 95       	ret

000042b2 <__gesf2>:
    42b2:	0e 94 e4 20 	call	0x41c8	; 0x41c8 <__fp_cmp>
    42b6:	08 f4       	brcc	.+2      	; 0x42ba <__gesf2+0x8>
    42b8:	8f ef       	ldi	r24, 0xFF	; 255
    42ba:	08 95       	ret

000042bc <lrint>:
    42bc:	0e 94 38 21 	call	0x4270	; 0x4270 <__fp_splitA>
    42c0:	a8 f1       	brcs	.+106    	; 0x432c <lrint+0x70>
    42c2:	9e 57       	subi	r25, 0x7E	; 126
    42c4:	b0 f1       	brcs	.+108    	; 0x4332 <lrint+0x76>
    42c6:	98 51       	subi	r25, 0x18	; 24
    42c8:	60 f0       	brcs	.+24     	; 0x42e2 <lrint+0x26>
    42ca:	39 f1       	breq	.+78     	; 0x431a <lrint+0x5e>
    42cc:	98 30       	cpi	r25, 0x08	; 8
    42ce:	70 f5       	brcc	.+92     	; 0x432c <lrint+0x70>
    42d0:	09 2e       	mov	r0, r25
    42d2:	99 27       	eor	r25, r25
    42d4:	66 0f       	add	r22, r22
    42d6:	77 1f       	adc	r23, r23
    42d8:	88 1f       	adc	r24, r24
    42da:	99 1f       	adc	r25, r25
    42dc:	0a 94       	dec	r0
    42de:	d1 f7       	brne	.-12     	; 0x42d4 <lrint+0x18>
    42e0:	1c c0       	rjmp	.+56     	; 0x431a <lrint+0x5e>
    42e2:	bb 27       	eor	r27, r27
    42e4:	99 3f       	cpi	r25, 0xF9	; 249
    42e6:	4c f4       	brge	.+18     	; 0x42fa <lrint+0x3e>
    42e8:	b1 11       	cpse	r27, r1
    42ea:	b1 e0       	ldi	r27, 0x01	; 1
    42ec:	b6 2b       	or	r27, r22
    42ee:	67 2f       	mov	r22, r23
    42f0:	78 2f       	mov	r23, r24
    42f2:	88 27       	eor	r24, r24
    42f4:	98 5f       	subi	r25, 0xF8	; 248
    42f6:	b1 f7       	brne	.-20     	; 0x42e4 <lrint+0x28>
    42f8:	08 c0       	rjmp	.+16     	; 0x430a <lrint+0x4e>
    42fa:	86 95       	lsr	r24
    42fc:	77 95       	ror	r23
    42fe:	67 95       	ror	r22
    4300:	b7 95       	ror	r27
    4302:	08 f4       	brcc	.+2      	; 0x4306 <lrint+0x4a>
    4304:	b1 60       	ori	r27, 0x01	; 1
    4306:	93 95       	inc	r25
    4308:	c1 f7       	brne	.-16     	; 0x42fa <lrint+0x3e>
    430a:	bb 0f       	add	r27, r27
    430c:	30 f4       	brcc	.+12     	; 0x431a <lrint+0x5e>
    430e:	11 f4       	brne	.+4      	; 0x4314 <lrint+0x58>
    4310:	60 ff       	sbrs	r22, 0
    4312:	03 c0       	rjmp	.+6      	; 0x431a <lrint+0x5e>
    4314:	6f 5f       	subi	r22, 0xFF	; 255
    4316:	7f 4f       	sbci	r23, 0xFF	; 255
    4318:	8f 4f       	sbci	r24, 0xFF	; 255
    431a:	3e f4       	brtc	.+14     	; 0x432a <lrint+0x6e>
    431c:	90 95       	com	r25
    431e:	80 95       	com	r24
    4320:	70 95       	com	r23
    4322:	61 95       	neg	r22
    4324:	7f 4f       	sbci	r23, 0xFF	; 255
    4326:	8f 4f       	sbci	r24, 0xFF	; 255
    4328:	9f 4f       	sbci	r25, 0xFF	; 255
    432a:	08 95       	ret
    432c:	68 94       	set
    432e:	0c 94 53 21 	jmp	0x42a6	; 0x42a6 <__fp_szero>
    4332:	0c 94 52 21 	jmp	0x42a4	; 0x42a4 <__fp_zero>

00004336 <__mulsf3>:
    4336:	0e 94 ae 21 	call	0x435c	; 0x435c <__mulsf3x>
    433a:	0c 94 1f 21 	jmp	0x423e	; 0x423e <__fp_round>
    433e:	0e 94 11 21 	call	0x4222	; 0x4222 <__fp_pscA>
    4342:	38 f0       	brcs	.+14     	; 0x4352 <__mulsf3+0x1c>
    4344:	0e 94 18 21 	call	0x4230	; 0x4230 <__fp_pscB>
    4348:	20 f0       	brcs	.+8      	; 0x4352 <__mulsf3+0x1c>
    434a:	95 23       	and	r25, r21
    434c:	11 f0       	breq	.+4      	; 0x4352 <__mulsf3+0x1c>
    434e:	0c 94 08 21 	jmp	0x4210	; 0x4210 <__fp_inf>
    4352:	0c 94 0e 21 	jmp	0x421c	; 0x421c <__fp_nan>
    4356:	11 24       	eor	r1, r1
    4358:	0c 94 53 21 	jmp	0x42a6	; 0x42a6 <__fp_szero>

0000435c <__mulsf3x>:
    435c:	0e 94 30 21 	call	0x4260	; 0x4260 <__fp_split3>
    4360:	70 f3       	brcs	.-36     	; 0x433e <__mulsf3+0x8>

00004362 <__mulsf3_pse>:
    4362:	95 9f       	mul	r25, r21
    4364:	c1 f3       	breq	.-16     	; 0x4356 <__mulsf3+0x20>
    4366:	95 0f       	add	r25, r21
    4368:	50 e0       	ldi	r21, 0x00	; 0
    436a:	55 1f       	adc	r21, r21
    436c:	62 9f       	mul	r22, r18
    436e:	f0 01       	movw	r30, r0
    4370:	72 9f       	mul	r23, r18
    4372:	bb 27       	eor	r27, r27
    4374:	f0 0d       	add	r31, r0
    4376:	b1 1d       	adc	r27, r1
    4378:	63 9f       	mul	r22, r19
    437a:	aa 27       	eor	r26, r26
    437c:	f0 0d       	add	r31, r0
    437e:	b1 1d       	adc	r27, r1
    4380:	aa 1f       	adc	r26, r26
    4382:	64 9f       	mul	r22, r20
    4384:	66 27       	eor	r22, r22
    4386:	b0 0d       	add	r27, r0
    4388:	a1 1d       	adc	r26, r1
    438a:	66 1f       	adc	r22, r22
    438c:	82 9f       	mul	r24, r18
    438e:	22 27       	eor	r18, r18
    4390:	b0 0d       	add	r27, r0
    4392:	a1 1d       	adc	r26, r1
    4394:	62 1f       	adc	r22, r18
    4396:	73 9f       	mul	r23, r19
    4398:	b0 0d       	add	r27, r0
    439a:	a1 1d       	adc	r26, r1
    439c:	62 1f       	adc	r22, r18
    439e:	83 9f       	mul	r24, r19
    43a0:	a0 0d       	add	r26, r0
    43a2:	61 1d       	adc	r22, r1
    43a4:	22 1f       	adc	r18, r18
    43a6:	74 9f       	mul	r23, r20
    43a8:	33 27       	eor	r19, r19
    43aa:	a0 0d       	add	r26, r0
    43ac:	61 1d       	adc	r22, r1
    43ae:	23 1f       	adc	r18, r19
    43b0:	84 9f       	mul	r24, r20
    43b2:	60 0d       	add	r22, r0
    43b4:	21 1d       	adc	r18, r1
    43b6:	82 2f       	mov	r24, r18
    43b8:	76 2f       	mov	r23, r22
    43ba:	6a 2f       	mov	r22, r26
    43bc:	11 24       	eor	r1, r1
    43be:	9f 57       	subi	r25, 0x7F	; 127
    43c0:	50 40       	sbci	r21, 0x00	; 0
    43c2:	9a f0       	brmi	.+38     	; 0x43ea <__mulsf3_pse+0x88>
    43c4:	f1 f0       	breq	.+60     	; 0x4402 <__mulsf3_pse+0xa0>
    43c6:	88 23       	and	r24, r24
    43c8:	4a f0       	brmi	.+18     	; 0x43dc <__mulsf3_pse+0x7a>
    43ca:	ee 0f       	add	r30, r30
    43cc:	ff 1f       	adc	r31, r31
    43ce:	bb 1f       	adc	r27, r27
    43d0:	66 1f       	adc	r22, r22
    43d2:	77 1f       	adc	r23, r23
    43d4:	88 1f       	adc	r24, r24
    43d6:	91 50       	subi	r25, 0x01	; 1
    43d8:	50 40       	sbci	r21, 0x00	; 0
    43da:	a9 f7       	brne	.-22     	; 0x43c6 <__mulsf3_pse+0x64>
    43dc:	9e 3f       	cpi	r25, 0xFE	; 254
    43de:	51 05       	cpc	r21, r1
    43e0:	80 f0       	brcs	.+32     	; 0x4402 <__mulsf3_pse+0xa0>
    43e2:	0c 94 08 21 	jmp	0x4210	; 0x4210 <__fp_inf>
    43e6:	0c 94 53 21 	jmp	0x42a6	; 0x42a6 <__fp_szero>
    43ea:	5f 3f       	cpi	r21, 0xFF	; 255
    43ec:	e4 f3       	brlt	.-8      	; 0x43e6 <__mulsf3_pse+0x84>
    43ee:	98 3e       	cpi	r25, 0xE8	; 232
    43f0:	d4 f3       	brlt	.-12     	; 0x43e6 <__mulsf3_pse+0x84>
    43f2:	86 95       	lsr	r24
    43f4:	77 95       	ror	r23
    43f6:	67 95       	ror	r22
    43f8:	b7 95       	ror	r27
    43fa:	f7 95       	ror	r31
    43fc:	e7 95       	ror	r30
    43fe:	9f 5f       	subi	r25, 0xFF	; 255
    4400:	c1 f7       	brne	.-16     	; 0x43f2 <__mulsf3_pse+0x90>
    4402:	fe 2b       	or	r31, r30
    4404:	88 0f       	add	r24, r24
    4406:	91 1d       	adc	r25, r1
    4408:	96 95       	lsr	r25
    440a:	87 95       	ror	r24
    440c:	97 f9       	bld	r25, 7
    440e:	08 95       	ret

00004410 <pow>:
    4410:	fa 01       	movw	r30, r20
    4412:	ee 0f       	add	r30, r30
    4414:	ff 1f       	adc	r31, r31
    4416:	30 96       	adiw	r30, 0x00	; 0
    4418:	21 05       	cpc	r18, r1
    441a:	31 05       	cpc	r19, r1
    441c:	a1 f1       	breq	.+104    	; 0x4486 <pow+0x76>
    441e:	61 15       	cp	r22, r1
    4420:	71 05       	cpc	r23, r1
    4422:	61 f4       	brne	.+24     	; 0x443c <pow+0x2c>
    4424:	80 38       	cpi	r24, 0x80	; 128
    4426:	bf e3       	ldi	r27, 0x3F	; 63
    4428:	9b 07       	cpc	r25, r27
    442a:	49 f1       	breq	.+82     	; 0x447e <pow+0x6e>
    442c:	68 94       	set
    442e:	90 38       	cpi	r25, 0x80	; 128
    4430:	81 05       	cpc	r24, r1
    4432:	61 f0       	breq	.+24     	; 0x444c <pow+0x3c>
    4434:	80 38       	cpi	r24, 0x80	; 128
    4436:	bf ef       	ldi	r27, 0xFF	; 255
    4438:	9b 07       	cpc	r25, r27
    443a:	41 f0       	breq	.+16     	; 0x444c <pow+0x3c>
    443c:	99 23       	and	r25, r25
    443e:	4a f5       	brpl	.+82     	; 0x4492 <pow+0x82>
    4440:	ff 3f       	cpi	r31, 0xFF	; 255
    4442:	e1 05       	cpc	r30, r1
    4444:	31 05       	cpc	r19, r1
    4446:	21 05       	cpc	r18, r1
    4448:	19 f1       	breq	.+70     	; 0x4490 <pow+0x80>
    444a:	e8 94       	clt
    444c:	08 94       	sec
    444e:	e7 95       	ror	r30
    4450:	d9 01       	movw	r26, r18
    4452:	aa 23       	and	r26, r26
    4454:	29 f4       	brne	.+10     	; 0x4460 <pow+0x50>
    4456:	ab 2f       	mov	r26, r27
    4458:	be 2f       	mov	r27, r30
    445a:	f8 5f       	subi	r31, 0xF8	; 248
    445c:	d0 f3       	brcs	.-12     	; 0x4452 <pow+0x42>
    445e:	10 c0       	rjmp	.+32     	; 0x4480 <pow+0x70>
    4460:	ff 5f       	subi	r31, 0xFF	; 255
    4462:	70 f4       	brcc	.+28     	; 0x4480 <pow+0x70>
    4464:	a6 95       	lsr	r26
    4466:	e0 f7       	brcc	.-8      	; 0x4460 <pow+0x50>
    4468:	f7 39       	cpi	r31, 0x97	; 151
    446a:	50 f0       	brcs	.+20     	; 0x4480 <pow+0x70>
    446c:	19 f0       	breq	.+6      	; 0x4474 <pow+0x64>
    446e:	ff 3a       	cpi	r31, 0xAF	; 175
    4470:	38 f4       	brcc	.+14     	; 0x4480 <pow+0x70>
    4472:	9f 77       	andi	r25, 0x7F	; 127
    4474:	9f 93       	push	r25
    4476:	0d d0       	rcall	.+26     	; 0x4492 <pow+0x82>
    4478:	0f 90       	pop	r0
    447a:	07 fc       	sbrc	r0, 7
    447c:	90 58       	subi	r25, 0x80	; 128
    447e:	08 95       	ret
    4480:	46 f0       	brts	.+16     	; 0x4492 <pow+0x82>
    4482:	0c 94 0e 21 	jmp	0x421c	; 0x421c <__fp_nan>
    4486:	60 e0       	ldi	r22, 0x00	; 0
    4488:	70 e0       	ldi	r23, 0x00	; 0
    448a:	80 e8       	ldi	r24, 0x80	; 128
    448c:	9f e3       	ldi	r25, 0x3F	; 63
    448e:	08 95       	ret
    4490:	4f e7       	ldi	r20, 0x7F	; 127
    4492:	9f 77       	andi	r25, 0x7F	; 127
    4494:	5f 93       	push	r21
    4496:	4f 93       	push	r20
    4498:	3f 93       	push	r19
    449a:	2f 93       	push	r18
    449c:	0e 94 03 23 	call	0x4606	; 0x4606 <log>
    44a0:	2f 91       	pop	r18
    44a2:	3f 91       	pop	r19
    44a4:	4f 91       	pop	r20
    44a6:	5f 91       	pop	r21
    44a8:	0e 94 9b 21 	call	0x4336	; 0x4336 <__mulsf3>
    44ac:	0c 94 60 22 	jmp	0x44c0	; 0x44c0 <exp>
    44b0:	29 f4       	brne	.+10     	; 0x44bc <pow+0xac>
    44b2:	16 f0       	brts	.+4      	; 0x44b8 <pow+0xa8>
    44b4:	0c 94 08 21 	jmp	0x4210	; 0x4210 <__fp_inf>
    44b8:	0c 94 52 21 	jmp	0x42a4	; 0x42a4 <__fp_zero>
    44bc:	0c 94 0e 21 	jmp	0x421c	; 0x421c <__fp_nan>

000044c0 <exp>:
    44c0:	0e 94 38 21 	call	0x4270	; 0x4270 <__fp_splitA>
    44c4:	a8 f3       	brcs	.-22     	; 0x44b0 <pow+0xa0>
    44c6:	96 38       	cpi	r25, 0x86	; 134
    44c8:	a0 f7       	brcc	.-24     	; 0x44b2 <pow+0xa2>
    44ca:	07 f8       	bld	r0, 7
    44cc:	0f 92       	push	r0
    44ce:	e8 94       	clt
    44d0:	2b e3       	ldi	r18, 0x3B	; 59
    44d2:	3a ea       	ldi	r19, 0xAA	; 170
    44d4:	48 eb       	ldi	r20, 0xB8	; 184
    44d6:	5f e7       	ldi	r21, 0x7F	; 127
    44d8:	0e 94 b1 21 	call	0x4362	; 0x4362 <__mulsf3_pse>
    44dc:	0f 92       	push	r0
    44de:	0f 92       	push	r0
    44e0:	0f 92       	push	r0
    44e2:	4d b7       	in	r20, 0x3d	; 61
    44e4:	5e b7       	in	r21, 0x3e	; 62
    44e6:	0f 92       	push	r0
    44e8:	0e 94 4b 23 	call	0x4696	; 0x4696 <modf>
    44ec:	ec e7       	ldi	r30, 0x7C	; 124
    44ee:	f0 e0       	ldi	r31, 0x00	; 0
    44f0:	0e 94 92 22 	call	0x4524	; 0x4524 <__fp_powser>
    44f4:	4f 91       	pop	r20
    44f6:	5f 91       	pop	r21
    44f8:	ef 91       	pop	r30
    44fa:	ff 91       	pop	r31
    44fc:	e5 95       	asr	r30
    44fe:	ee 1f       	adc	r30, r30
    4500:	ff 1f       	adc	r31, r31
    4502:	49 f0       	breq	.+18     	; 0x4516 <exp+0x56>
    4504:	fe 57       	subi	r31, 0x7E	; 126
    4506:	e0 68       	ori	r30, 0x80	; 128
    4508:	44 27       	eor	r20, r20
    450a:	ee 0f       	add	r30, r30
    450c:	44 1f       	adc	r20, r20
    450e:	fa 95       	dec	r31
    4510:	e1 f7       	brne	.-8      	; 0x450a <exp+0x4a>
    4512:	41 95       	neg	r20
    4514:	55 0b       	sbc	r21, r21
    4516:	0e 94 c5 22 	call	0x458a	; 0x458a <ldexp>
    451a:	0f 90       	pop	r0
    451c:	07 fe       	sbrs	r0, 7
    451e:	0c 94 b9 22 	jmp	0x4572	; 0x4572 <inverse>
    4522:	08 95       	ret

00004524 <__fp_powser>:
    4524:	df 93       	push	r29
    4526:	cf 93       	push	r28
    4528:	1f 93       	push	r17
    452a:	0f 93       	push	r16
    452c:	ff 92       	push	r15
    452e:	ef 92       	push	r14
    4530:	df 92       	push	r13
    4532:	7b 01       	movw	r14, r22
    4534:	8c 01       	movw	r16, r24
    4536:	68 94       	set
    4538:	06 c0       	rjmp	.+12     	; 0x4546 <__fp_powser+0x22>
    453a:	da 2e       	mov	r13, r26
    453c:	ef 01       	movw	r28, r30
    453e:	0e 94 ae 21 	call	0x435c	; 0x435c <__mulsf3x>
    4542:	fe 01       	movw	r30, r28
    4544:	e8 94       	clt
    4546:	a5 91       	lpm	r26, Z+
    4548:	25 91       	lpm	r18, Z+
    454a:	35 91       	lpm	r19, Z+
    454c:	45 91       	lpm	r20, Z+
    454e:	55 91       	lpm	r21, Z+
    4550:	a6 f3       	brts	.-24     	; 0x453a <__fp_powser+0x16>
    4552:	ef 01       	movw	r28, r30
    4554:	0e 94 a5 1f 	call	0x3f4a	; 0x3f4a <__addsf3x>
    4558:	fe 01       	movw	r30, r28
    455a:	97 01       	movw	r18, r14
    455c:	a8 01       	movw	r20, r16
    455e:	da 94       	dec	r13
    4560:	69 f7       	brne	.-38     	; 0x453c <__fp_powser+0x18>
    4562:	df 90       	pop	r13
    4564:	ef 90       	pop	r14
    4566:	ff 90       	pop	r15
    4568:	0f 91       	pop	r16
    456a:	1f 91       	pop	r17
    456c:	cf 91       	pop	r28
    456e:	df 91       	pop	r29
    4570:	08 95       	ret

00004572 <inverse>:
    4572:	9b 01       	movw	r18, r22
    4574:	ac 01       	movw	r20, r24
    4576:	60 e0       	ldi	r22, 0x00	; 0
    4578:	70 e0       	ldi	r23, 0x00	; 0
    457a:	80 e8       	ldi	r24, 0x80	; 128
    457c:	9f e3       	ldi	r25, 0x3F	; 63
    457e:	0c 94 ff 1f 	jmp	0x3ffe	; 0x3ffe <__divsf3>
    4582:	0c 94 08 21 	jmp	0x4210	; 0x4210 <__fp_inf>
    4586:	0c 94 7f 23 	jmp	0x46fe	; 0x46fe <__fp_mpack>

0000458a <ldexp>:
    458a:	0e 94 38 21 	call	0x4270	; 0x4270 <__fp_splitA>
    458e:	d8 f3       	brcs	.-10     	; 0x4586 <inverse+0x14>
    4590:	99 23       	and	r25, r25
    4592:	c9 f3       	breq	.-14     	; 0x4586 <inverse+0x14>
    4594:	94 0f       	add	r25, r20
    4596:	51 1d       	adc	r21, r1
    4598:	a3 f3       	brvs	.-24     	; 0x4582 <inverse+0x10>
    459a:	91 50       	subi	r25, 0x01	; 1
    459c:	50 40       	sbci	r21, 0x00	; 0
    459e:	94 f0       	brlt	.+36     	; 0x45c4 <ldexp+0x3a>
    45a0:	59 f0       	breq	.+22     	; 0x45b8 <ldexp+0x2e>
    45a2:	88 23       	and	r24, r24
    45a4:	32 f0       	brmi	.+12     	; 0x45b2 <ldexp+0x28>
    45a6:	66 0f       	add	r22, r22
    45a8:	77 1f       	adc	r23, r23
    45aa:	88 1f       	adc	r24, r24
    45ac:	91 50       	subi	r25, 0x01	; 1
    45ae:	50 40       	sbci	r21, 0x00	; 0
    45b0:	c1 f7       	brne	.-16     	; 0x45a2 <ldexp+0x18>
    45b2:	9e 3f       	cpi	r25, 0xFE	; 254
    45b4:	51 05       	cpc	r21, r1
    45b6:	2c f7       	brge	.-54     	; 0x4582 <inverse+0x10>
    45b8:	88 0f       	add	r24, r24
    45ba:	91 1d       	adc	r25, r1
    45bc:	96 95       	lsr	r25
    45be:	87 95       	ror	r24
    45c0:	97 f9       	bld	r25, 7
    45c2:	08 95       	ret
    45c4:	5f 3f       	cpi	r21, 0xFF	; 255
    45c6:	ac f0       	brlt	.+42     	; 0x45f2 <ldexp+0x68>
    45c8:	98 3e       	cpi	r25, 0xE8	; 232
    45ca:	9c f0       	brlt	.+38     	; 0x45f2 <ldexp+0x68>
    45cc:	bb 27       	eor	r27, r27
    45ce:	86 95       	lsr	r24
    45d0:	77 95       	ror	r23
    45d2:	67 95       	ror	r22
    45d4:	b7 95       	ror	r27
    45d6:	08 f4       	brcc	.+2      	; 0x45da <ldexp+0x50>
    45d8:	b1 60       	ori	r27, 0x01	; 1
    45da:	93 95       	inc	r25
    45dc:	c1 f7       	brne	.-16     	; 0x45ce <ldexp+0x44>
    45de:	bb 0f       	add	r27, r27
    45e0:	58 f7       	brcc	.-42     	; 0x45b8 <ldexp+0x2e>
    45e2:	11 f4       	brne	.+4      	; 0x45e8 <ldexp+0x5e>
    45e4:	60 ff       	sbrs	r22, 0
    45e6:	e8 cf       	rjmp	.-48     	; 0x45b8 <ldexp+0x2e>
    45e8:	6f 5f       	subi	r22, 0xFF	; 255
    45ea:	7f 4f       	sbci	r23, 0xFF	; 255
    45ec:	8f 4f       	sbci	r24, 0xFF	; 255
    45ee:	9f 4f       	sbci	r25, 0xFF	; 255
    45f0:	e3 cf       	rjmp	.-58     	; 0x45b8 <ldexp+0x2e>
    45f2:	0c 94 53 21 	jmp	0x42a6	; 0x42a6 <__fp_szero>
    45f6:	16 f0       	brts	.+4      	; 0x45fc <ldexp+0x72>
    45f8:	0c 94 7f 23 	jmp	0x46fe	; 0x46fe <__fp_mpack>
    45fc:	0c 94 0e 21 	jmp	0x421c	; 0x421c <__fp_nan>
    4600:	68 94       	set
    4602:	0c 94 08 21 	jmp	0x4210	; 0x4210 <__fp_inf>

00004606 <log>:
    4606:	0e 94 38 21 	call	0x4270	; 0x4270 <__fp_splitA>
    460a:	a8 f3       	brcs	.-22     	; 0x45f6 <ldexp+0x6c>
    460c:	99 23       	and	r25, r25
    460e:	c1 f3       	breq	.-16     	; 0x4600 <ldexp+0x76>
    4610:	ae f3       	brts	.-22     	; 0x45fc <ldexp+0x72>
    4612:	df 93       	push	r29
    4614:	cf 93       	push	r28
    4616:	1f 93       	push	r17
    4618:	0f 93       	push	r16
    461a:	ff 92       	push	r15
    461c:	c9 2f       	mov	r28, r25
    461e:	dd 27       	eor	r29, r29
    4620:	88 23       	and	r24, r24
    4622:	2a f0       	brmi	.+10     	; 0x462e <log+0x28>
    4624:	21 97       	sbiw	r28, 0x01	; 1
    4626:	66 0f       	add	r22, r22
    4628:	77 1f       	adc	r23, r23
    462a:	88 1f       	adc	r24, r24
    462c:	da f7       	brpl	.-10     	; 0x4624 <log+0x1e>
    462e:	20 e0       	ldi	r18, 0x00	; 0
    4630:	30 e0       	ldi	r19, 0x00	; 0
    4632:	40 e8       	ldi	r20, 0x80	; 128
    4634:	5f eb       	ldi	r21, 0xBF	; 191
    4636:	9f e3       	ldi	r25, 0x3F	; 63
    4638:	88 39       	cpi	r24, 0x98	; 152
    463a:	20 f0       	brcs	.+8      	; 0x4644 <log+0x3e>
    463c:	80 3e       	cpi	r24, 0xE0	; 224
    463e:	38 f0       	brcs	.+14     	; 0x464e <log+0x48>
    4640:	21 96       	adiw	r28, 0x01	; 1
    4642:	8f 77       	andi	r24, 0x7F	; 127
    4644:	0e 94 8e 1f 	call	0x3f1c	; 0x3f1c <__addsf3>
    4648:	e4 ea       	ldi	r30, 0xA4	; 164
    464a:	f0 e0       	ldi	r31, 0x00	; 0
    464c:	04 c0       	rjmp	.+8      	; 0x4656 <log+0x50>
    464e:	0e 94 8e 1f 	call	0x3f1c	; 0x3f1c <__addsf3>
    4652:	e1 ed       	ldi	r30, 0xD1	; 209
    4654:	f0 e0       	ldi	r31, 0x00	; 0
    4656:	0e 94 92 22 	call	0x4524	; 0x4524 <__fp_powser>
    465a:	8b 01       	movw	r16, r22
    465c:	be 01       	movw	r22, r28
    465e:	ec 01       	movw	r28, r24
    4660:	fb 2e       	mov	r15, r27
    4662:	6f 57       	subi	r22, 0x7F	; 127
    4664:	71 09       	sbc	r23, r1
    4666:	75 95       	asr	r23
    4668:	77 1f       	adc	r23, r23
    466a:	88 0b       	sbc	r24, r24
    466c:	99 0b       	sbc	r25, r25
    466e:	0e 94 a9 20 	call	0x4152	; 0x4152 <__floatsisf>
    4672:	28 e1       	ldi	r18, 0x18	; 24
    4674:	32 e7       	ldi	r19, 0x72	; 114
    4676:	41 e3       	ldi	r20, 0x31	; 49
    4678:	5f e3       	ldi	r21, 0x3F	; 63
    467a:	0e 94 ae 21 	call	0x435c	; 0x435c <__mulsf3x>
    467e:	af 2d       	mov	r26, r15
    4680:	98 01       	movw	r18, r16
    4682:	ae 01       	movw	r20, r28
    4684:	ff 90       	pop	r15
    4686:	0f 91       	pop	r16
    4688:	1f 91       	pop	r17
    468a:	cf 91       	pop	r28
    468c:	df 91       	pop	r29
    468e:	0e 94 a5 1f 	call	0x3f4a	; 0x3f4a <__addsf3x>
    4692:	0c 94 1f 21 	jmp	0x423e	; 0x423e <__fp_round>

00004696 <modf>:
    4696:	fa 01       	movw	r30, r20
    4698:	dc 01       	movw	r26, r24
    469a:	aa 0f       	add	r26, r26
    469c:	bb 1f       	adc	r27, r27
    469e:	9b 01       	movw	r18, r22
    46a0:	ac 01       	movw	r20, r24
    46a2:	bf 57       	subi	r27, 0x7F	; 127
    46a4:	28 f4       	brcc	.+10     	; 0x46b0 <modf+0x1a>
    46a6:	22 27       	eor	r18, r18
    46a8:	33 27       	eor	r19, r19
    46aa:	44 27       	eor	r20, r20
    46ac:	50 78       	andi	r21, 0x80	; 128
    46ae:	20 c0       	rjmp	.+64     	; 0x46f0 <modf+0x5a>
    46b0:	b7 51       	subi	r27, 0x17	; 23
    46b2:	90 f4       	brcc	.+36     	; 0x46d8 <modf+0x42>
    46b4:	ab 2f       	mov	r26, r27
    46b6:	00 24       	eor	r0, r0
    46b8:	46 95       	lsr	r20
    46ba:	37 95       	ror	r19
    46bc:	27 95       	ror	r18
    46be:	01 1c       	adc	r0, r1
    46c0:	a3 95       	inc	r26
    46c2:	d2 f3       	brmi	.-12     	; 0x46b8 <modf+0x22>
    46c4:	00 20       	and	r0, r0
    46c6:	71 f0       	breq	.+28     	; 0x46e4 <modf+0x4e>
    46c8:	22 0f       	add	r18, r18
    46ca:	33 1f       	adc	r19, r19
    46cc:	44 1f       	adc	r20, r20
    46ce:	b3 95       	inc	r27
    46d0:	da f3       	brmi	.-10     	; 0x46c8 <modf+0x32>
    46d2:	0e d0       	rcall	.+28     	; 0x46f0 <modf+0x5a>
    46d4:	0c 94 8d 1f 	jmp	0x3f1a	; 0x3f1a <__subsf3>
    46d8:	61 30       	cpi	r22, 0x01	; 1
    46da:	71 05       	cpc	r23, r1
    46dc:	a0 e8       	ldi	r26, 0x80	; 128
    46de:	8a 07       	cpc	r24, r26
    46e0:	b9 46       	sbci	r27, 0x69	; 105
    46e2:	30 f4       	brcc	.+12     	; 0x46f0 <modf+0x5a>
    46e4:	9b 01       	movw	r18, r22
    46e6:	ac 01       	movw	r20, r24
    46e8:	66 27       	eor	r22, r22
    46ea:	77 27       	eor	r23, r23
    46ec:	88 27       	eor	r24, r24
    46ee:	90 78       	andi	r25, 0x80	; 128
    46f0:	30 96       	adiw	r30, 0x00	; 0
    46f2:	21 f0       	breq	.+8      	; 0x46fc <modf+0x66>
    46f4:	20 83       	st	Z, r18
    46f6:	31 83       	std	Z+1, r19	; 0x01
    46f8:	42 83       	std	Z+2, r20	; 0x02
    46fa:	53 83       	std	Z+3, r21	; 0x03
    46fc:	08 95       	ret

000046fe <__fp_mpack>:
    46fe:	9f 3f       	cpi	r25, 0xFF	; 255
    4700:	31 f0       	breq	.+12     	; 0x470e <__fp_mpack_finite+0xc>

00004702 <__fp_mpack_finite>:
    4702:	91 50       	subi	r25, 0x01	; 1
    4704:	20 f4       	brcc	.+8      	; 0x470e <__fp_mpack_finite+0xc>
    4706:	87 95       	ror	r24
    4708:	77 95       	ror	r23
    470a:	67 95       	ror	r22
    470c:	b7 95       	ror	r27
    470e:	88 0f       	add	r24, r24
    4710:	91 1d       	adc	r25, r1
    4712:	96 95       	lsr	r25
    4714:	87 95       	ror	r24
    4716:	97 f9       	bld	r25, 7
    4718:	08 95       	ret

0000471a <__mulsi3>:
    471a:	db 01       	movw	r26, r22
    471c:	8f 93       	push	r24
    471e:	9f 93       	push	r25
    4720:	0e 94 ce 23 	call	0x479c	; 0x479c <__muluhisi3>
    4724:	bf 91       	pop	r27
    4726:	af 91       	pop	r26
    4728:	a2 9f       	mul	r26, r18
    472a:	80 0d       	add	r24, r0
    472c:	91 1d       	adc	r25, r1
    472e:	a3 9f       	mul	r26, r19
    4730:	90 0d       	add	r25, r0
    4732:	b2 9f       	mul	r27, r18
    4734:	90 0d       	add	r25, r0
    4736:	11 24       	eor	r1, r1
    4738:	08 95       	ret

0000473a <__udivmodsi4>:
    473a:	a1 e2       	ldi	r26, 0x21	; 33
    473c:	1a 2e       	mov	r1, r26
    473e:	aa 1b       	sub	r26, r26
    4740:	bb 1b       	sub	r27, r27
    4742:	fd 01       	movw	r30, r26
    4744:	0d c0       	rjmp	.+26     	; 0x4760 <__udivmodsi4_ep>

00004746 <__udivmodsi4_loop>:
    4746:	aa 1f       	adc	r26, r26
    4748:	bb 1f       	adc	r27, r27
    474a:	ee 1f       	adc	r30, r30
    474c:	ff 1f       	adc	r31, r31
    474e:	a2 17       	cp	r26, r18
    4750:	b3 07       	cpc	r27, r19
    4752:	e4 07       	cpc	r30, r20
    4754:	f5 07       	cpc	r31, r21
    4756:	20 f0       	brcs	.+8      	; 0x4760 <__udivmodsi4_ep>
    4758:	a2 1b       	sub	r26, r18
    475a:	b3 0b       	sbc	r27, r19
    475c:	e4 0b       	sbc	r30, r20
    475e:	f5 0b       	sbc	r31, r21

00004760 <__udivmodsi4_ep>:
    4760:	66 1f       	adc	r22, r22
    4762:	77 1f       	adc	r23, r23
    4764:	88 1f       	adc	r24, r24
    4766:	99 1f       	adc	r25, r25
    4768:	1a 94       	dec	r1
    476a:	69 f7       	brne	.-38     	; 0x4746 <__udivmodsi4_loop>
    476c:	60 95       	com	r22
    476e:	70 95       	com	r23
    4770:	80 95       	com	r24
    4772:	90 95       	com	r25
    4774:	9b 01       	movw	r18, r22
    4776:	ac 01       	movw	r20, r24
    4778:	bd 01       	movw	r22, r26
    477a:	cf 01       	movw	r24, r30
    477c:	08 95       	ret

0000477e <__umulhisi3>:
    477e:	a2 9f       	mul	r26, r18
    4780:	b0 01       	movw	r22, r0
    4782:	b3 9f       	mul	r27, r19
    4784:	c0 01       	movw	r24, r0
    4786:	a3 9f       	mul	r26, r19
    4788:	70 0d       	add	r23, r0
    478a:	81 1d       	adc	r24, r1
    478c:	11 24       	eor	r1, r1
    478e:	91 1d       	adc	r25, r1
    4790:	b2 9f       	mul	r27, r18
    4792:	70 0d       	add	r23, r0
    4794:	81 1d       	adc	r24, r1
    4796:	11 24       	eor	r1, r1
    4798:	91 1d       	adc	r25, r1
    479a:	08 95       	ret

0000479c <__muluhisi3>:
    479c:	0e 94 bf 23 	call	0x477e	; 0x477e <__umulhisi3>
    47a0:	a5 9f       	mul	r26, r21
    47a2:	90 0d       	add	r25, r0
    47a4:	b4 9f       	mul	r27, r20
    47a6:	90 0d       	add	r25, r0
    47a8:	a4 9f       	mul	r26, r20
    47aa:	80 0d       	add	r24, r0
    47ac:	91 1d       	adc	r25, r1
    47ae:	11 24       	eor	r1, r1
    47b0:	08 95       	ret

000047b2 <__prologue_saves__>:
    47b2:	2f 92       	push	r2
    47b4:	3f 92       	push	r3
    47b6:	4f 92       	push	r4
    47b8:	5f 92       	push	r5
    47ba:	6f 92       	push	r6
    47bc:	7f 92       	push	r7
    47be:	8f 92       	push	r8
    47c0:	9f 92       	push	r9
    47c2:	af 92       	push	r10
    47c4:	bf 92       	push	r11
    47c6:	cf 92       	push	r12
    47c8:	df 92       	push	r13
    47ca:	ef 92       	push	r14
    47cc:	ff 92       	push	r15
    47ce:	0f 93       	push	r16
    47d0:	1f 93       	push	r17
    47d2:	cf 93       	push	r28
    47d4:	df 93       	push	r29
    47d6:	cd b7       	in	r28, 0x3d	; 61
    47d8:	de b7       	in	r29, 0x3e	; 62
    47da:	ca 1b       	sub	r28, r26
    47dc:	db 0b       	sbc	r29, r27
    47de:	0f b6       	in	r0, 0x3f	; 63
    47e0:	f8 94       	cli
    47e2:	de bf       	out	0x3e, r29	; 62
    47e4:	0f be       	out	0x3f, r0	; 63
    47e6:	cd bf       	out	0x3d, r28	; 61
    47e8:	09 94       	ijmp

000047ea <__epilogue_restores__>:
    47ea:	2a 88       	ldd	r2, Y+18	; 0x12
    47ec:	39 88       	ldd	r3, Y+17	; 0x11
    47ee:	48 88       	ldd	r4, Y+16	; 0x10
    47f0:	5f 84       	ldd	r5, Y+15	; 0x0f
    47f2:	6e 84       	ldd	r6, Y+14	; 0x0e
    47f4:	7d 84       	ldd	r7, Y+13	; 0x0d
    47f6:	8c 84       	ldd	r8, Y+12	; 0x0c
    47f8:	9b 84       	ldd	r9, Y+11	; 0x0b
    47fa:	aa 84       	ldd	r10, Y+10	; 0x0a
    47fc:	b9 84       	ldd	r11, Y+9	; 0x09
    47fe:	c8 84       	ldd	r12, Y+8	; 0x08
    4800:	df 80       	ldd	r13, Y+7	; 0x07
    4802:	ee 80       	ldd	r14, Y+6	; 0x06
    4804:	fd 80       	ldd	r15, Y+5	; 0x05
    4806:	0c 81       	ldd	r16, Y+4	; 0x04
    4808:	1b 81       	ldd	r17, Y+3	; 0x03
    480a:	aa 81       	ldd	r26, Y+2	; 0x02
    480c:	b9 81       	ldd	r27, Y+1	; 0x01
    480e:	ce 0f       	add	r28, r30
    4810:	d1 1d       	adc	r29, r1
    4812:	0f b6       	in	r0, 0x3f	; 63
    4814:	f8 94       	cli
    4816:	de bf       	out	0x3e, r29	; 62
    4818:	0f be       	out	0x3f, r0	; 63
    481a:	cd bf       	out	0x3d, r28	; 61
    481c:	ed 01       	movw	r28, r26
    481e:	08 95       	ret

00004820 <malloc>:
    4820:	cf 93       	push	r28
    4822:	df 93       	push	r29
    4824:	82 30       	cpi	r24, 0x02	; 2
    4826:	91 05       	cpc	r25, r1
    4828:	10 f4       	brcc	.+4      	; 0x482e <malloc+0xe>
    482a:	82 e0       	ldi	r24, 0x02	; 2
    482c:	90 e0       	ldi	r25, 0x00	; 0
    482e:	e0 91 8a 02 	lds	r30, 0x028A	; 0x80028a <__flp>
    4832:	f0 91 8b 02 	lds	r31, 0x028B	; 0x80028b <__flp+0x1>
    4836:	20 e0       	ldi	r18, 0x00	; 0
    4838:	30 e0       	ldi	r19, 0x00	; 0
    483a:	c0 e0       	ldi	r28, 0x00	; 0
    483c:	d0 e0       	ldi	r29, 0x00	; 0
    483e:	30 97       	sbiw	r30, 0x00	; 0
    4840:	11 f1       	breq	.+68     	; 0x4886 <malloc+0x66>
    4842:	40 81       	ld	r20, Z
    4844:	51 81       	ldd	r21, Z+1	; 0x01
    4846:	48 17       	cp	r20, r24
    4848:	59 07       	cpc	r21, r25
    484a:	c0 f0       	brcs	.+48     	; 0x487c <malloc+0x5c>
    484c:	48 17       	cp	r20, r24
    484e:	59 07       	cpc	r21, r25
    4850:	61 f4       	brne	.+24     	; 0x486a <malloc+0x4a>
    4852:	82 81       	ldd	r24, Z+2	; 0x02
    4854:	93 81       	ldd	r25, Z+3	; 0x03
    4856:	20 97       	sbiw	r28, 0x00	; 0
    4858:	19 f0       	breq	.+6      	; 0x4860 <malloc+0x40>
    485a:	9b 83       	std	Y+3, r25	; 0x03
    485c:	8a 83       	std	Y+2, r24	; 0x02
    485e:	2b c0       	rjmp	.+86     	; 0x48b6 <malloc+0x96>
    4860:	90 93 8b 02 	sts	0x028B, r25	; 0x80028b <__flp+0x1>
    4864:	80 93 8a 02 	sts	0x028A, r24	; 0x80028a <__flp>
    4868:	26 c0       	rjmp	.+76     	; 0x48b6 <malloc+0x96>
    486a:	21 15       	cp	r18, r1
    486c:	31 05       	cpc	r19, r1
    486e:	19 f0       	breq	.+6      	; 0x4876 <malloc+0x56>
    4870:	42 17       	cp	r20, r18
    4872:	53 07       	cpc	r21, r19
    4874:	18 f4       	brcc	.+6      	; 0x487c <malloc+0x5c>
    4876:	9a 01       	movw	r18, r20
    4878:	be 01       	movw	r22, r28
    487a:	df 01       	movw	r26, r30
    487c:	ef 01       	movw	r28, r30
    487e:	02 80       	ldd	r0, Z+2	; 0x02
    4880:	f3 81       	ldd	r31, Z+3	; 0x03
    4882:	e0 2d       	mov	r30, r0
    4884:	dc cf       	rjmp	.-72     	; 0x483e <malloc+0x1e>
    4886:	21 15       	cp	r18, r1
    4888:	31 05       	cpc	r19, r1
    488a:	09 f1       	breq	.+66     	; 0x48ce <malloc+0xae>
    488c:	28 1b       	sub	r18, r24
    488e:	39 0b       	sbc	r19, r25
    4890:	24 30       	cpi	r18, 0x04	; 4
    4892:	31 05       	cpc	r19, r1
    4894:	90 f4       	brcc	.+36     	; 0x48ba <malloc+0x9a>
    4896:	12 96       	adiw	r26, 0x02	; 2
    4898:	8d 91       	ld	r24, X+
    489a:	9c 91       	ld	r25, X
    489c:	13 97       	sbiw	r26, 0x03	; 3
    489e:	61 15       	cp	r22, r1
    48a0:	71 05       	cpc	r23, r1
    48a2:	21 f0       	breq	.+8      	; 0x48ac <malloc+0x8c>
    48a4:	fb 01       	movw	r30, r22
    48a6:	93 83       	std	Z+3, r25	; 0x03
    48a8:	82 83       	std	Z+2, r24	; 0x02
    48aa:	04 c0       	rjmp	.+8      	; 0x48b4 <malloc+0x94>
    48ac:	90 93 8b 02 	sts	0x028B, r25	; 0x80028b <__flp+0x1>
    48b0:	80 93 8a 02 	sts	0x028A, r24	; 0x80028a <__flp>
    48b4:	fd 01       	movw	r30, r26
    48b6:	32 96       	adiw	r30, 0x02	; 2
    48b8:	44 c0       	rjmp	.+136    	; 0x4942 <malloc+0x122>
    48ba:	fd 01       	movw	r30, r26
    48bc:	e2 0f       	add	r30, r18
    48be:	f3 1f       	adc	r31, r19
    48c0:	81 93       	st	Z+, r24
    48c2:	91 93       	st	Z+, r25
    48c4:	22 50       	subi	r18, 0x02	; 2
    48c6:	31 09       	sbc	r19, r1
    48c8:	2d 93       	st	X+, r18
    48ca:	3c 93       	st	X, r19
    48cc:	3a c0       	rjmp	.+116    	; 0x4942 <malloc+0x122>
    48ce:	20 91 88 02 	lds	r18, 0x0288	; 0x800288 <__brkval>
    48d2:	30 91 89 02 	lds	r19, 0x0289	; 0x800289 <__brkval+0x1>
    48d6:	23 2b       	or	r18, r19
    48d8:	41 f4       	brne	.+16     	; 0x48ea <malloc+0xca>
    48da:	20 91 1d 01 	lds	r18, 0x011D	; 0x80011d <__malloc_heap_start>
    48de:	30 91 1e 01 	lds	r19, 0x011E	; 0x80011e <__malloc_heap_start+0x1>
    48e2:	30 93 89 02 	sts	0x0289, r19	; 0x800289 <__brkval+0x1>
    48e6:	20 93 88 02 	sts	0x0288, r18	; 0x800288 <__brkval>
    48ea:	20 91 1b 01 	lds	r18, 0x011B	; 0x80011b <__malloc_heap_end>
    48ee:	30 91 1c 01 	lds	r19, 0x011C	; 0x80011c <__malloc_heap_end+0x1>
    48f2:	21 15       	cp	r18, r1
    48f4:	31 05       	cpc	r19, r1
    48f6:	41 f4       	brne	.+16     	; 0x4908 <malloc+0xe8>
    48f8:	2d b7       	in	r18, 0x3d	; 61
    48fa:	3e b7       	in	r19, 0x3e	; 62
    48fc:	40 91 1f 01 	lds	r20, 0x011F	; 0x80011f <__malloc_margin>
    4900:	50 91 20 01 	lds	r21, 0x0120	; 0x800120 <__malloc_margin+0x1>
    4904:	24 1b       	sub	r18, r20
    4906:	35 0b       	sbc	r19, r21
    4908:	e0 91 88 02 	lds	r30, 0x0288	; 0x800288 <__brkval>
    490c:	f0 91 89 02 	lds	r31, 0x0289	; 0x800289 <__brkval+0x1>
    4910:	e2 17       	cp	r30, r18
    4912:	f3 07       	cpc	r31, r19
    4914:	a0 f4       	brcc	.+40     	; 0x493e <malloc+0x11e>
    4916:	2e 1b       	sub	r18, r30
    4918:	3f 0b       	sbc	r19, r31
    491a:	28 17       	cp	r18, r24
    491c:	39 07       	cpc	r19, r25
    491e:	78 f0       	brcs	.+30     	; 0x493e <malloc+0x11e>
    4920:	ac 01       	movw	r20, r24
    4922:	4e 5f       	subi	r20, 0xFE	; 254
    4924:	5f 4f       	sbci	r21, 0xFF	; 255
    4926:	24 17       	cp	r18, r20
    4928:	35 07       	cpc	r19, r21
    492a:	48 f0       	brcs	.+18     	; 0x493e <malloc+0x11e>
    492c:	4e 0f       	add	r20, r30
    492e:	5f 1f       	adc	r21, r31
    4930:	50 93 89 02 	sts	0x0289, r21	; 0x800289 <__brkval+0x1>
    4934:	40 93 88 02 	sts	0x0288, r20	; 0x800288 <__brkval>
    4938:	81 93       	st	Z+, r24
    493a:	91 93       	st	Z+, r25
    493c:	02 c0       	rjmp	.+4      	; 0x4942 <malloc+0x122>
    493e:	e0 e0       	ldi	r30, 0x00	; 0
    4940:	f0 e0       	ldi	r31, 0x00	; 0
    4942:	cf 01       	movw	r24, r30
    4944:	df 91       	pop	r29
    4946:	cf 91       	pop	r28
    4948:	08 95       	ret

0000494a <free>:
    494a:	0f 93       	push	r16
    494c:	1f 93       	push	r17
    494e:	cf 93       	push	r28
    4950:	df 93       	push	r29
    4952:	00 97       	sbiw	r24, 0x00	; 0
    4954:	09 f4       	brne	.+2      	; 0x4958 <free+0xe>
    4956:	8c c0       	rjmp	.+280    	; 0x4a70 <free+0x126>
    4958:	fc 01       	movw	r30, r24
    495a:	32 97       	sbiw	r30, 0x02	; 2
    495c:	13 82       	std	Z+3, r1	; 0x03
    495e:	12 82       	std	Z+2, r1	; 0x02
    4960:	00 91 8a 02 	lds	r16, 0x028A	; 0x80028a <__flp>
    4964:	10 91 8b 02 	lds	r17, 0x028B	; 0x80028b <__flp+0x1>
    4968:	01 15       	cp	r16, r1
    496a:	11 05       	cpc	r17, r1
    496c:	81 f4       	brne	.+32     	; 0x498e <free+0x44>
    496e:	20 81       	ld	r18, Z
    4970:	31 81       	ldd	r19, Z+1	; 0x01
    4972:	82 0f       	add	r24, r18
    4974:	93 1f       	adc	r25, r19
    4976:	20 91 88 02 	lds	r18, 0x0288	; 0x800288 <__brkval>
    497a:	30 91 89 02 	lds	r19, 0x0289	; 0x800289 <__brkval+0x1>
    497e:	28 17       	cp	r18, r24
    4980:	39 07       	cpc	r19, r25
    4982:	79 f5       	brne	.+94     	; 0x49e2 <free+0x98>
    4984:	f0 93 89 02 	sts	0x0289, r31	; 0x800289 <__brkval+0x1>
    4988:	e0 93 88 02 	sts	0x0288, r30	; 0x800288 <__brkval>
    498c:	71 c0       	rjmp	.+226    	; 0x4a70 <free+0x126>
    498e:	d8 01       	movw	r26, r16
    4990:	40 e0       	ldi	r20, 0x00	; 0
    4992:	50 e0       	ldi	r21, 0x00	; 0
    4994:	ae 17       	cp	r26, r30
    4996:	bf 07       	cpc	r27, r31
    4998:	50 f4       	brcc	.+20     	; 0x49ae <free+0x64>
    499a:	12 96       	adiw	r26, 0x02	; 2
    499c:	2d 91       	ld	r18, X+
    499e:	3c 91       	ld	r19, X
    49a0:	13 97       	sbiw	r26, 0x03	; 3
    49a2:	ad 01       	movw	r20, r26
    49a4:	21 15       	cp	r18, r1
    49a6:	31 05       	cpc	r19, r1
    49a8:	09 f1       	breq	.+66     	; 0x49ec <free+0xa2>
    49aa:	d9 01       	movw	r26, r18
    49ac:	f3 cf       	rjmp	.-26     	; 0x4994 <free+0x4a>
    49ae:	9d 01       	movw	r18, r26
    49b0:	da 01       	movw	r26, r20
    49b2:	33 83       	std	Z+3, r19	; 0x03
    49b4:	22 83       	std	Z+2, r18	; 0x02
    49b6:	60 81       	ld	r22, Z
    49b8:	71 81       	ldd	r23, Z+1	; 0x01
    49ba:	86 0f       	add	r24, r22
    49bc:	97 1f       	adc	r25, r23
    49be:	82 17       	cp	r24, r18
    49c0:	93 07       	cpc	r25, r19
    49c2:	69 f4       	brne	.+26     	; 0x49de <free+0x94>
    49c4:	ec 01       	movw	r28, r24
    49c6:	28 81       	ld	r18, Y
    49c8:	39 81       	ldd	r19, Y+1	; 0x01
    49ca:	26 0f       	add	r18, r22
    49cc:	37 1f       	adc	r19, r23
    49ce:	2e 5f       	subi	r18, 0xFE	; 254
    49d0:	3f 4f       	sbci	r19, 0xFF	; 255
    49d2:	31 83       	std	Z+1, r19	; 0x01
    49d4:	20 83       	st	Z, r18
    49d6:	8a 81       	ldd	r24, Y+2	; 0x02
    49d8:	9b 81       	ldd	r25, Y+3	; 0x03
    49da:	93 83       	std	Z+3, r25	; 0x03
    49dc:	82 83       	std	Z+2, r24	; 0x02
    49de:	45 2b       	or	r20, r21
    49e0:	29 f4       	brne	.+10     	; 0x49ec <free+0xa2>
    49e2:	f0 93 8b 02 	sts	0x028B, r31	; 0x80028b <__flp+0x1>
    49e6:	e0 93 8a 02 	sts	0x028A, r30	; 0x80028a <__flp>
    49ea:	42 c0       	rjmp	.+132    	; 0x4a70 <free+0x126>
    49ec:	13 96       	adiw	r26, 0x03	; 3
    49ee:	fc 93       	st	X, r31
    49f0:	ee 93       	st	-X, r30
    49f2:	12 97       	sbiw	r26, 0x02	; 2
    49f4:	ed 01       	movw	r28, r26
    49f6:	49 91       	ld	r20, Y+
    49f8:	59 91       	ld	r21, Y+
    49fa:	9e 01       	movw	r18, r28
    49fc:	24 0f       	add	r18, r20
    49fe:	35 1f       	adc	r19, r21
    4a00:	e2 17       	cp	r30, r18
    4a02:	f3 07       	cpc	r31, r19
    4a04:	71 f4       	brne	.+28     	; 0x4a22 <free+0xd8>
    4a06:	80 81       	ld	r24, Z
    4a08:	91 81       	ldd	r25, Z+1	; 0x01
    4a0a:	84 0f       	add	r24, r20
    4a0c:	95 1f       	adc	r25, r21
    4a0e:	02 96       	adiw	r24, 0x02	; 2
    4a10:	11 96       	adiw	r26, 0x01	; 1
    4a12:	9c 93       	st	X, r25
    4a14:	8e 93       	st	-X, r24
    4a16:	82 81       	ldd	r24, Z+2	; 0x02
    4a18:	93 81       	ldd	r25, Z+3	; 0x03
    4a1a:	13 96       	adiw	r26, 0x03	; 3
    4a1c:	9c 93       	st	X, r25
    4a1e:	8e 93       	st	-X, r24
    4a20:	12 97       	sbiw	r26, 0x02	; 2
    4a22:	e0 e0       	ldi	r30, 0x00	; 0
    4a24:	f0 e0       	ldi	r31, 0x00	; 0
    4a26:	d8 01       	movw	r26, r16
    4a28:	12 96       	adiw	r26, 0x02	; 2
    4a2a:	8d 91       	ld	r24, X+
    4a2c:	9c 91       	ld	r25, X
    4a2e:	13 97       	sbiw	r26, 0x03	; 3
    4a30:	00 97       	sbiw	r24, 0x00	; 0
    4a32:	19 f0       	breq	.+6      	; 0x4a3a <free+0xf0>
    4a34:	f8 01       	movw	r30, r16
    4a36:	8c 01       	movw	r16, r24
    4a38:	f6 cf       	rjmp	.-20     	; 0x4a26 <free+0xdc>
    4a3a:	8d 91       	ld	r24, X+
    4a3c:	9c 91       	ld	r25, X
    4a3e:	98 01       	movw	r18, r16
    4a40:	2e 5f       	subi	r18, 0xFE	; 254
    4a42:	3f 4f       	sbci	r19, 0xFF	; 255
    4a44:	82 0f       	add	r24, r18
    4a46:	93 1f       	adc	r25, r19
    4a48:	20 91 88 02 	lds	r18, 0x0288	; 0x800288 <__brkval>
    4a4c:	30 91 89 02 	lds	r19, 0x0289	; 0x800289 <__brkval+0x1>
    4a50:	28 17       	cp	r18, r24
    4a52:	39 07       	cpc	r19, r25
    4a54:	69 f4       	brne	.+26     	; 0x4a70 <free+0x126>
    4a56:	30 97       	sbiw	r30, 0x00	; 0
    4a58:	29 f4       	brne	.+10     	; 0x4a64 <free+0x11a>
    4a5a:	10 92 8b 02 	sts	0x028B, r1	; 0x80028b <__flp+0x1>
    4a5e:	10 92 8a 02 	sts	0x028A, r1	; 0x80028a <__flp>
    4a62:	02 c0       	rjmp	.+4      	; 0x4a68 <free+0x11e>
    4a64:	13 82       	std	Z+3, r1	; 0x03
    4a66:	12 82       	std	Z+2, r1	; 0x02
    4a68:	10 93 89 02 	sts	0x0289, r17	; 0x800289 <__brkval+0x1>
    4a6c:	00 93 88 02 	sts	0x0288, r16	; 0x800288 <__brkval>
    4a70:	df 91       	pop	r29
    4a72:	cf 91       	pop	r28
    4a74:	1f 91       	pop	r17
    4a76:	0f 91       	pop	r16
    4a78:	08 95       	ret

00004a7a <__ftoa_engine>:
    4a7a:	28 30       	cpi	r18, 0x08	; 8
    4a7c:	08 f0       	brcs	.+2      	; 0x4a80 <__ftoa_engine+0x6>
    4a7e:	27 e0       	ldi	r18, 0x07	; 7
    4a80:	33 27       	eor	r19, r19
    4a82:	da 01       	movw	r26, r20
    4a84:	99 0f       	add	r25, r25
    4a86:	31 1d       	adc	r19, r1
    4a88:	87 fd       	sbrc	r24, 7
    4a8a:	91 60       	ori	r25, 0x01	; 1
    4a8c:	00 96       	adiw	r24, 0x00	; 0
    4a8e:	61 05       	cpc	r22, r1
    4a90:	71 05       	cpc	r23, r1
    4a92:	39 f4       	brne	.+14     	; 0x4aa2 <__ftoa_engine+0x28>
    4a94:	32 60       	ori	r19, 0x02	; 2
    4a96:	2e 5f       	subi	r18, 0xFE	; 254
    4a98:	3d 93       	st	X+, r19
    4a9a:	30 e3       	ldi	r19, 0x30	; 48
    4a9c:	2a 95       	dec	r18
    4a9e:	e1 f7       	brne	.-8      	; 0x4a98 <__ftoa_engine+0x1e>
    4aa0:	08 95       	ret
    4aa2:	9f 3f       	cpi	r25, 0xFF	; 255
    4aa4:	30 f0       	brcs	.+12     	; 0x4ab2 <__ftoa_engine+0x38>
    4aa6:	80 38       	cpi	r24, 0x80	; 128
    4aa8:	71 05       	cpc	r23, r1
    4aaa:	61 05       	cpc	r22, r1
    4aac:	09 f0       	breq	.+2      	; 0x4ab0 <__ftoa_engine+0x36>
    4aae:	3c 5f       	subi	r19, 0xFC	; 252
    4ab0:	3c 5f       	subi	r19, 0xFC	; 252
    4ab2:	3d 93       	st	X+, r19
    4ab4:	91 30       	cpi	r25, 0x01	; 1
    4ab6:	08 f0       	brcs	.+2      	; 0x4aba <__ftoa_engine+0x40>
    4ab8:	80 68       	ori	r24, 0x80	; 128
    4aba:	91 1d       	adc	r25, r1
    4abc:	df 93       	push	r29
    4abe:	cf 93       	push	r28
    4ac0:	1f 93       	push	r17
    4ac2:	0f 93       	push	r16
    4ac4:	ff 92       	push	r15
    4ac6:	ef 92       	push	r14
    4ac8:	19 2f       	mov	r17, r25
    4aca:	98 7f       	andi	r25, 0xF8	; 248
    4acc:	96 95       	lsr	r25
    4ace:	e9 2f       	mov	r30, r25
    4ad0:	96 95       	lsr	r25
    4ad2:	96 95       	lsr	r25
    4ad4:	e9 0f       	add	r30, r25
    4ad6:	ff 27       	eor	r31, r31
    4ad8:	e0 5a       	subi	r30, 0xA0	; 160
    4ada:	fe 4f       	sbci	r31, 0xFE	; 254
    4adc:	99 27       	eor	r25, r25
    4ade:	33 27       	eor	r19, r19
    4ae0:	ee 24       	eor	r14, r14
    4ae2:	ff 24       	eor	r15, r15
    4ae4:	a7 01       	movw	r20, r14
    4ae6:	e7 01       	movw	r28, r14
    4ae8:	05 90       	lpm	r0, Z+
    4aea:	08 94       	sec
    4aec:	07 94       	ror	r0
    4aee:	28 f4       	brcc	.+10     	; 0x4afa <__ftoa_engine+0x80>
    4af0:	36 0f       	add	r19, r22
    4af2:	e7 1e       	adc	r14, r23
    4af4:	f8 1e       	adc	r15, r24
    4af6:	49 1f       	adc	r20, r25
    4af8:	51 1d       	adc	r21, r1
    4afa:	66 0f       	add	r22, r22
    4afc:	77 1f       	adc	r23, r23
    4afe:	88 1f       	adc	r24, r24
    4b00:	99 1f       	adc	r25, r25
    4b02:	06 94       	lsr	r0
    4b04:	a1 f7       	brne	.-24     	; 0x4aee <__ftoa_engine+0x74>
    4b06:	05 90       	lpm	r0, Z+
    4b08:	07 94       	ror	r0
    4b0a:	28 f4       	brcc	.+10     	; 0x4b16 <__ftoa_engine+0x9c>
    4b0c:	e7 0e       	add	r14, r23
    4b0e:	f8 1e       	adc	r15, r24
    4b10:	49 1f       	adc	r20, r25
    4b12:	56 1f       	adc	r21, r22
    4b14:	c1 1d       	adc	r28, r1
    4b16:	77 0f       	add	r23, r23
    4b18:	88 1f       	adc	r24, r24
    4b1a:	99 1f       	adc	r25, r25
    4b1c:	66 1f       	adc	r22, r22
    4b1e:	06 94       	lsr	r0
    4b20:	a1 f7       	brne	.-24     	; 0x4b0a <__ftoa_engine+0x90>
    4b22:	05 90       	lpm	r0, Z+
    4b24:	07 94       	ror	r0
    4b26:	28 f4       	brcc	.+10     	; 0x4b32 <__ftoa_engine+0xb8>
    4b28:	f8 0e       	add	r15, r24
    4b2a:	49 1f       	adc	r20, r25
    4b2c:	56 1f       	adc	r21, r22
    4b2e:	c7 1f       	adc	r28, r23
    4b30:	d1 1d       	adc	r29, r1
    4b32:	88 0f       	add	r24, r24
    4b34:	99 1f       	adc	r25, r25
    4b36:	66 1f       	adc	r22, r22
    4b38:	77 1f       	adc	r23, r23
    4b3a:	06 94       	lsr	r0
    4b3c:	a1 f7       	brne	.-24     	; 0x4b26 <__ftoa_engine+0xac>
    4b3e:	05 90       	lpm	r0, Z+
    4b40:	07 94       	ror	r0
    4b42:	20 f4       	brcc	.+8      	; 0x4b4c <__ftoa_engine+0xd2>
    4b44:	49 0f       	add	r20, r25
    4b46:	56 1f       	adc	r21, r22
    4b48:	c7 1f       	adc	r28, r23
    4b4a:	d8 1f       	adc	r29, r24
    4b4c:	99 0f       	add	r25, r25
    4b4e:	66 1f       	adc	r22, r22
    4b50:	77 1f       	adc	r23, r23
    4b52:	88 1f       	adc	r24, r24
    4b54:	06 94       	lsr	r0
    4b56:	a9 f7       	brne	.-22     	; 0x4b42 <__ftoa_engine+0xc8>
    4b58:	84 91       	lpm	r24, Z
    4b5a:	10 95       	com	r17
    4b5c:	17 70       	andi	r17, 0x07	; 7
    4b5e:	41 f0       	breq	.+16     	; 0x4b70 <__ftoa_engine+0xf6>
    4b60:	d6 95       	lsr	r29
    4b62:	c7 95       	ror	r28
    4b64:	57 95       	ror	r21
    4b66:	47 95       	ror	r20
    4b68:	f7 94       	ror	r15
    4b6a:	e7 94       	ror	r14
    4b6c:	1a 95       	dec	r17
    4b6e:	c1 f7       	brne	.-16     	; 0x4b60 <__ftoa_engine+0xe6>
    4b70:	e6 e0       	ldi	r30, 0x06	; 6
    4b72:	f1 e0       	ldi	r31, 0x01	; 1
    4b74:	68 94       	set
    4b76:	15 90       	lpm	r1, Z+
    4b78:	15 91       	lpm	r17, Z+
    4b7a:	35 91       	lpm	r19, Z+
    4b7c:	65 91       	lpm	r22, Z+
    4b7e:	95 91       	lpm	r25, Z+
    4b80:	05 90       	lpm	r0, Z+
    4b82:	7f e2       	ldi	r23, 0x2F	; 47
    4b84:	73 95       	inc	r23
    4b86:	e1 18       	sub	r14, r1
    4b88:	f1 0a       	sbc	r15, r17
    4b8a:	43 0b       	sbc	r20, r19
    4b8c:	56 0b       	sbc	r21, r22
    4b8e:	c9 0b       	sbc	r28, r25
    4b90:	d0 09       	sbc	r29, r0
    4b92:	c0 f7       	brcc	.-16     	; 0x4b84 <__ftoa_engine+0x10a>
    4b94:	e1 0c       	add	r14, r1
    4b96:	f1 1e       	adc	r15, r17
    4b98:	43 1f       	adc	r20, r19
    4b9a:	56 1f       	adc	r21, r22
    4b9c:	c9 1f       	adc	r28, r25
    4b9e:	d0 1d       	adc	r29, r0
    4ba0:	7e f4       	brtc	.+30     	; 0x4bc0 <__ftoa_engine+0x146>
    4ba2:	70 33       	cpi	r23, 0x30	; 48
    4ba4:	11 f4       	brne	.+4      	; 0x4baa <__ftoa_engine+0x130>
    4ba6:	8a 95       	dec	r24
    4ba8:	e6 cf       	rjmp	.-52     	; 0x4b76 <__ftoa_engine+0xfc>
    4baa:	e8 94       	clt
    4bac:	01 50       	subi	r16, 0x01	; 1
    4bae:	30 f0       	brcs	.+12     	; 0x4bbc <__ftoa_engine+0x142>
    4bb0:	08 0f       	add	r16, r24
    4bb2:	0a f4       	brpl	.+2      	; 0x4bb6 <__ftoa_engine+0x13c>
    4bb4:	00 27       	eor	r16, r16
    4bb6:	02 17       	cp	r16, r18
    4bb8:	08 f4       	brcc	.+2      	; 0x4bbc <__ftoa_engine+0x142>
    4bba:	20 2f       	mov	r18, r16
    4bbc:	23 95       	inc	r18
    4bbe:	02 2f       	mov	r16, r18
    4bc0:	7a 33       	cpi	r23, 0x3A	; 58
    4bc2:	28 f0       	brcs	.+10     	; 0x4bce <__ftoa_engine+0x154>
    4bc4:	79 e3       	ldi	r23, 0x39	; 57
    4bc6:	7d 93       	st	X+, r23
    4bc8:	2a 95       	dec	r18
    4bca:	e9 f7       	brne	.-6      	; 0x4bc6 <__ftoa_engine+0x14c>
    4bcc:	10 c0       	rjmp	.+32     	; 0x4bee <__ftoa_engine+0x174>
    4bce:	7d 93       	st	X+, r23
    4bd0:	2a 95       	dec	r18
    4bd2:	89 f6       	brne	.-94     	; 0x4b76 <__ftoa_engine+0xfc>
    4bd4:	06 94       	lsr	r0
    4bd6:	97 95       	ror	r25
    4bd8:	67 95       	ror	r22
    4bda:	37 95       	ror	r19
    4bdc:	17 95       	ror	r17
    4bde:	17 94       	ror	r1
    4be0:	e1 18       	sub	r14, r1
    4be2:	f1 0a       	sbc	r15, r17
    4be4:	43 0b       	sbc	r20, r19
    4be6:	56 0b       	sbc	r21, r22
    4be8:	c9 0b       	sbc	r28, r25
    4bea:	d0 09       	sbc	r29, r0
    4bec:	98 f0       	brcs	.+38     	; 0x4c14 <__ftoa_engine+0x19a>
    4bee:	23 95       	inc	r18
    4bf0:	7e 91       	ld	r23, -X
    4bf2:	73 95       	inc	r23
    4bf4:	7a 33       	cpi	r23, 0x3A	; 58
    4bf6:	08 f0       	brcs	.+2      	; 0x4bfa <__ftoa_engine+0x180>
    4bf8:	70 e3       	ldi	r23, 0x30	; 48
    4bfa:	7c 93       	st	X, r23
    4bfc:	20 13       	cpse	r18, r16
    4bfe:	b8 f7       	brcc	.-18     	; 0x4bee <__ftoa_engine+0x174>
    4c00:	7e 91       	ld	r23, -X
    4c02:	70 61       	ori	r23, 0x10	; 16
    4c04:	7d 93       	st	X+, r23
    4c06:	30 f0       	brcs	.+12     	; 0x4c14 <__ftoa_engine+0x19a>
    4c08:	83 95       	inc	r24
    4c0a:	71 e3       	ldi	r23, 0x31	; 49
    4c0c:	7d 93       	st	X+, r23
    4c0e:	70 e3       	ldi	r23, 0x30	; 48
    4c10:	2a 95       	dec	r18
    4c12:	e1 f7       	brne	.-8      	; 0x4c0c <__ftoa_engine+0x192>
    4c14:	11 24       	eor	r1, r1
    4c16:	ef 90       	pop	r14
    4c18:	ff 90       	pop	r15
    4c1a:	0f 91       	pop	r16
    4c1c:	1f 91       	pop	r17
    4c1e:	cf 91       	pop	r28
    4c20:	df 91       	pop	r29
    4c22:	99 27       	eor	r25, r25
    4c24:	87 fd       	sbrc	r24, 7
    4c26:	90 95       	com	r25
    4c28:	08 95       	ret

00004c2a <strnlen_P>:
    4c2a:	fc 01       	movw	r30, r24
    4c2c:	05 90       	lpm	r0, Z+
    4c2e:	61 50       	subi	r22, 0x01	; 1
    4c30:	70 40       	sbci	r23, 0x00	; 0
    4c32:	01 10       	cpse	r0, r1
    4c34:	d8 f7       	brcc	.-10     	; 0x4c2c <strnlen_P+0x2>
    4c36:	80 95       	com	r24
    4c38:	90 95       	com	r25
    4c3a:	8e 0f       	add	r24, r30
    4c3c:	9f 1f       	adc	r25, r31
    4c3e:	08 95       	ret

00004c40 <strnlen>:
    4c40:	fc 01       	movw	r30, r24
    4c42:	61 50       	subi	r22, 0x01	; 1
    4c44:	70 40       	sbci	r23, 0x00	; 0
    4c46:	01 90       	ld	r0, Z+
    4c48:	01 10       	cpse	r0, r1
    4c4a:	d8 f7       	brcc	.-10     	; 0x4c42 <strnlen+0x2>
    4c4c:	80 95       	com	r24
    4c4e:	90 95       	com	r25
    4c50:	8e 0f       	add	r24, r30
    4c52:	9f 1f       	adc	r25, r31
    4c54:	08 95       	ret

00004c56 <fputc>:
    4c56:	0f 93       	push	r16
    4c58:	1f 93       	push	r17
    4c5a:	cf 93       	push	r28
    4c5c:	df 93       	push	r29
    4c5e:	fb 01       	movw	r30, r22
    4c60:	23 81       	ldd	r18, Z+3	; 0x03
    4c62:	21 fd       	sbrc	r18, 1
    4c64:	03 c0       	rjmp	.+6      	; 0x4c6c <fputc+0x16>
    4c66:	8f ef       	ldi	r24, 0xFF	; 255
    4c68:	9f ef       	ldi	r25, 0xFF	; 255
    4c6a:	28 c0       	rjmp	.+80     	; 0x4cbc <fputc+0x66>
    4c6c:	22 ff       	sbrs	r18, 2
    4c6e:	16 c0       	rjmp	.+44     	; 0x4c9c <fputc+0x46>
    4c70:	46 81       	ldd	r20, Z+6	; 0x06
    4c72:	57 81       	ldd	r21, Z+7	; 0x07
    4c74:	24 81       	ldd	r18, Z+4	; 0x04
    4c76:	35 81       	ldd	r19, Z+5	; 0x05
    4c78:	42 17       	cp	r20, r18
    4c7a:	53 07       	cpc	r21, r19
    4c7c:	44 f4       	brge	.+16     	; 0x4c8e <fputc+0x38>
    4c7e:	a0 81       	ld	r26, Z
    4c80:	b1 81       	ldd	r27, Z+1	; 0x01
    4c82:	9d 01       	movw	r18, r26
    4c84:	2f 5f       	subi	r18, 0xFF	; 255
    4c86:	3f 4f       	sbci	r19, 0xFF	; 255
    4c88:	31 83       	std	Z+1, r19	; 0x01
    4c8a:	20 83       	st	Z, r18
    4c8c:	8c 93       	st	X, r24
    4c8e:	26 81       	ldd	r18, Z+6	; 0x06
    4c90:	37 81       	ldd	r19, Z+7	; 0x07
    4c92:	2f 5f       	subi	r18, 0xFF	; 255
    4c94:	3f 4f       	sbci	r19, 0xFF	; 255
    4c96:	37 83       	std	Z+7, r19	; 0x07
    4c98:	26 83       	std	Z+6, r18	; 0x06
    4c9a:	10 c0       	rjmp	.+32     	; 0x4cbc <fputc+0x66>
    4c9c:	eb 01       	movw	r28, r22
    4c9e:	09 2f       	mov	r16, r25
    4ca0:	18 2f       	mov	r17, r24
    4ca2:	00 84       	ldd	r0, Z+8	; 0x08
    4ca4:	f1 85       	ldd	r31, Z+9	; 0x09
    4ca6:	e0 2d       	mov	r30, r0
    4ca8:	09 95       	icall
    4caa:	89 2b       	or	r24, r25
    4cac:	e1 f6       	brne	.-72     	; 0x4c66 <fputc+0x10>
    4cae:	8e 81       	ldd	r24, Y+6	; 0x06
    4cb0:	9f 81       	ldd	r25, Y+7	; 0x07
    4cb2:	01 96       	adiw	r24, 0x01	; 1
    4cb4:	9f 83       	std	Y+7, r25	; 0x07
    4cb6:	8e 83       	std	Y+6, r24	; 0x06
    4cb8:	81 2f       	mov	r24, r17
    4cba:	90 2f       	mov	r25, r16
    4cbc:	df 91       	pop	r29
    4cbe:	cf 91       	pop	r28
    4cc0:	1f 91       	pop	r17
    4cc2:	0f 91       	pop	r16
    4cc4:	08 95       	ret

00004cc6 <puts>:
    4cc6:	0f 93       	push	r16
    4cc8:	1f 93       	push	r17
    4cca:	cf 93       	push	r28
    4ccc:	df 93       	push	r29
    4cce:	e0 91 8e 02 	lds	r30, 0x028E	; 0x80028e <__iob+0x2>
    4cd2:	f0 91 8f 02 	lds	r31, 0x028F	; 0x80028f <__iob+0x3>
    4cd6:	23 81       	ldd	r18, Z+3	; 0x03
    4cd8:	21 ff       	sbrs	r18, 1
    4cda:	1b c0       	rjmp	.+54     	; 0x4d12 <puts+0x4c>
    4cdc:	8c 01       	movw	r16, r24
    4cde:	d0 e0       	ldi	r29, 0x00	; 0
    4ce0:	c0 e0       	ldi	r28, 0x00	; 0
    4ce2:	f8 01       	movw	r30, r16
    4ce4:	81 91       	ld	r24, Z+
    4ce6:	8f 01       	movw	r16, r30
    4ce8:	60 91 8e 02 	lds	r22, 0x028E	; 0x80028e <__iob+0x2>
    4cec:	70 91 8f 02 	lds	r23, 0x028F	; 0x80028f <__iob+0x3>
    4cf0:	db 01       	movw	r26, r22
    4cf2:	18 96       	adiw	r26, 0x08	; 8
    4cf4:	ed 91       	ld	r30, X+
    4cf6:	fc 91       	ld	r31, X
    4cf8:	19 97       	sbiw	r26, 0x09	; 9
    4cfa:	88 23       	and	r24, r24
    4cfc:	31 f0       	breq	.+12     	; 0x4d0a <puts+0x44>
    4cfe:	09 95       	icall
    4d00:	89 2b       	or	r24, r25
    4d02:	79 f3       	breq	.-34     	; 0x4ce2 <puts+0x1c>
    4d04:	df ef       	ldi	r29, 0xFF	; 255
    4d06:	cf ef       	ldi	r28, 0xFF	; 255
    4d08:	ec cf       	rjmp	.-40     	; 0x4ce2 <puts+0x1c>
    4d0a:	8a e0       	ldi	r24, 0x0A	; 10
    4d0c:	09 95       	icall
    4d0e:	89 2b       	or	r24, r25
    4d10:	19 f0       	breq	.+6      	; 0x4d18 <puts+0x52>
    4d12:	8f ef       	ldi	r24, 0xFF	; 255
    4d14:	9f ef       	ldi	r25, 0xFF	; 255
    4d16:	02 c0       	rjmp	.+4      	; 0x4d1c <puts+0x56>
    4d18:	8d 2f       	mov	r24, r29
    4d1a:	9c 2f       	mov	r25, r28
    4d1c:	df 91       	pop	r29
    4d1e:	cf 91       	pop	r28
    4d20:	1f 91       	pop	r17
    4d22:	0f 91       	pop	r16
    4d24:	08 95       	ret

00004d26 <__ultoa_invert>:
    4d26:	fa 01       	movw	r30, r20
    4d28:	aa 27       	eor	r26, r26
    4d2a:	28 30       	cpi	r18, 0x08	; 8
    4d2c:	51 f1       	breq	.+84     	; 0x4d82 <__ultoa_invert+0x5c>
    4d2e:	20 31       	cpi	r18, 0x10	; 16
    4d30:	81 f1       	breq	.+96     	; 0x4d92 <__ultoa_invert+0x6c>
    4d32:	e8 94       	clt
    4d34:	6f 93       	push	r22
    4d36:	6e 7f       	andi	r22, 0xFE	; 254
    4d38:	6e 5f       	subi	r22, 0xFE	; 254
    4d3a:	7f 4f       	sbci	r23, 0xFF	; 255
    4d3c:	8f 4f       	sbci	r24, 0xFF	; 255
    4d3e:	9f 4f       	sbci	r25, 0xFF	; 255
    4d40:	af 4f       	sbci	r26, 0xFF	; 255
    4d42:	b1 e0       	ldi	r27, 0x01	; 1
    4d44:	3e d0       	rcall	.+124    	; 0x4dc2 <__ultoa_invert+0x9c>
    4d46:	b4 e0       	ldi	r27, 0x04	; 4
    4d48:	3c d0       	rcall	.+120    	; 0x4dc2 <__ultoa_invert+0x9c>
    4d4a:	67 0f       	add	r22, r23
    4d4c:	78 1f       	adc	r23, r24
    4d4e:	89 1f       	adc	r24, r25
    4d50:	9a 1f       	adc	r25, r26
    4d52:	a1 1d       	adc	r26, r1
    4d54:	68 0f       	add	r22, r24
    4d56:	79 1f       	adc	r23, r25
    4d58:	8a 1f       	adc	r24, r26
    4d5a:	91 1d       	adc	r25, r1
    4d5c:	a1 1d       	adc	r26, r1
    4d5e:	6a 0f       	add	r22, r26
    4d60:	71 1d       	adc	r23, r1
    4d62:	81 1d       	adc	r24, r1
    4d64:	91 1d       	adc	r25, r1
    4d66:	a1 1d       	adc	r26, r1
    4d68:	20 d0       	rcall	.+64     	; 0x4daa <__ultoa_invert+0x84>
    4d6a:	09 f4       	brne	.+2      	; 0x4d6e <__ultoa_invert+0x48>
    4d6c:	68 94       	set
    4d6e:	3f 91       	pop	r19
    4d70:	2a e0       	ldi	r18, 0x0A	; 10
    4d72:	26 9f       	mul	r18, r22
    4d74:	11 24       	eor	r1, r1
    4d76:	30 19       	sub	r19, r0
    4d78:	30 5d       	subi	r19, 0xD0	; 208
    4d7a:	31 93       	st	Z+, r19
    4d7c:	de f6       	brtc	.-74     	; 0x4d34 <__ultoa_invert+0xe>
    4d7e:	cf 01       	movw	r24, r30
    4d80:	08 95       	ret
    4d82:	46 2f       	mov	r20, r22
    4d84:	47 70       	andi	r20, 0x07	; 7
    4d86:	40 5d       	subi	r20, 0xD0	; 208
    4d88:	41 93       	st	Z+, r20
    4d8a:	b3 e0       	ldi	r27, 0x03	; 3
    4d8c:	0f d0       	rcall	.+30     	; 0x4dac <__ultoa_invert+0x86>
    4d8e:	c9 f7       	brne	.-14     	; 0x4d82 <__ultoa_invert+0x5c>
    4d90:	f6 cf       	rjmp	.-20     	; 0x4d7e <__ultoa_invert+0x58>
    4d92:	46 2f       	mov	r20, r22
    4d94:	4f 70       	andi	r20, 0x0F	; 15
    4d96:	40 5d       	subi	r20, 0xD0	; 208
    4d98:	4a 33       	cpi	r20, 0x3A	; 58
    4d9a:	18 f0       	brcs	.+6      	; 0x4da2 <__ultoa_invert+0x7c>
    4d9c:	49 5d       	subi	r20, 0xD9	; 217
    4d9e:	31 fd       	sbrc	r19, 1
    4da0:	40 52       	subi	r20, 0x20	; 32
    4da2:	41 93       	st	Z+, r20
    4da4:	02 d0       	rcall	.+4      	; 0x4daa <__ultoa_invert+0x84>
    4da6:	a9 f7       	brne	.-22     	; 0x4d92 <__ultoa_invert+0x6c>
    4da8:	ea cf       	rjmp	.-44     	; 0x4d7e <__ultoa_invert+0x58>
    4daa:	b4 e0       	ldi	r27, 0x04	; 4
    4dac:	a6 95       	lsr	r26
    4dae:	97 95       	ror	r25
    4db0:	87 95       	ror	r24
    4db2:	77 95       	ror	r23
    4db4:	67 95       	ror	r22
    4db6:	ba 95       	dec	r27
    4db8:	c9 f7       	brne	.-14     	; 0x4dac <__ultoa_invert+0x86>
    4dba:	00 97       	sbiw	r24, 0x00	; 0
    4dbc:	61 05       	cpc	r22, r1
    4dbe:	71 05       	cpc	r23, r1
    4dc0:	08 95       	ret
    4dc2:	9b 01       	movw	r18, r22
    4dc4:	ac 01       	movw	r20, r24
    4dc6:	0a 2e       	mov	r0, r26
    4dc8:	06 94       	lsr	r0
    4dca:	57 95       	ror	r21
    4dcc:	47 95       	ror	r20
    4dce:	37 95       	ror	r19
    4dd0:	27 95       	ror	r18
    4dd2:	ba 95       	dec	r27
    4dd4:	c9 f7       	brne	.-14     	; 0x4dc8 <__ultoa_invert+0xa2>
    4dd6:	62 0f       	add	r22, r18
    4dd8:	73 1f       	adc	r23, r19
    4dda:	84 1f       	adc	r24, r20
    4ddc:	95 1f       	adc	r25, r21
    4dde:	a0 1d       	adc	r26, r0
    4de0:	08 95       	ret

00004de2 <_exit>:
    4de2:	f8 94       	cli

00004de4 <__stop_program>:
    4de4:	ff cf       	rjmp	.-2      	; 0x4de4 <__stop_program>
